
bomb:     file format elf64-x86-64


Disassembly of section .init:

0000000000400bd8 <_init>:
  400bd8:	48 83 ec 08          	sub    $0x8,%rsp
  400bdc:	48 8b 05 15 24 20 00 	mov    0x202415(%rip),%rax        # 602ff8 <_DYNAMIC+0x1d8>
  400be3:	48 85 c0             	test   %rax,%rax
  400be6:	74 02                	je     400bea <_init+0x12>
  400be8:	ff d0                	callq  *%rax
  400bea:	48 83 c4 08          	add    $0x8,%rsp
  400bee:	c3                   	retq   

Disassembly of section .plt:

0000000000400bf0 <getenv@plt-0x10>:
  400bf0:	ff 35 12 24 20 00    	pushq  0x202412(%rip)        # 603008 <_GLOBAL_OFFSET_TABLE_+0x8>
  400bf6:	ff 25 14 24 20 00    	jmpq   *0x202414(%rip)        # 603010 <_GLOBAL_OFFSET_TABLE_+0x10>
  400bfc:	0f 1f 40 00          	nopl   0x0(%rax)

0000000000400c00 <getenv@plt>:
  400c00:	ff 25 12 24 20 00    	jmpq   *0x202412(%rip)        # 603018 <_GLOBAL_OFFSET_TABLE_+0x18>
  400c06:	68 00 00 00 00       	pushq  $0x0
  400c0b:	e9 e0 ff ff ff       	jmpq   400bf0 <_init+0x18>

0000000000400c10 <__errno_location@plt>:
  400c10:	ff 25 0a 24 20 00    	jmpq   *0x20240a(%rip)        # 603020 <_GLOBAL_OFFSET_TABLE_+0x20>
  400c16:	68 01 00 00 00       	pushq  $0x1
  400c1b:	e9 d0 ff ff ff       	jmpq   400bf0 <_init+0x18>

0000000000400c20 <strcpy@plt>:
  400c20:	ff 25 02 24 20 00    	jmpq   *0x202402(%rip)        # 603028 <_GLOBAL_OFFSET_TABLE_+0x28>
  400c26:	68 02 00 00 00       	pushq  $0x2
  400c2b:	e9 c0 ff ff ff       	jmpq   400bf0 <_init+0x18>

0000000000400c30 <puts@plt>:
  400c30:	ff 25 fa 23 20 00    	jmpq   *0x2023fa(%rip)        # 603030 <_GLOBAL_OFFSET_TABLE_+0x30>
  400c36:	68 03 00 00 00       	pushq  $0x3
  400c3b:	e9 b0 ff ff ff       	jmpq   400bf0 <_init+0x18>

0000000000400c40 <write@plt>:
  400c40:	ff 25 f2 23 20 00    	jmpq   *0x2023f2(%rip)        # 603038 <_GLOBAL_OFFSET_TABLE_+0x38>
  400c46:	68 04 00 00 00       	pushq  $0x4
  400c4b:	e9 a0 ff ff ff       	jmpq   400bf0 <_init+0x18>

0000000000400c50 <fclose@plt>:
  400c50:	ff 25 ea 23 20 00    	jmpq   *0x2023ea(%rip)        # 603040 <_GLOBAL_OFFSET_TABLE_+0x40>
  400c56:	68 05 00 00 00       	pushq  $0x5
  400c5b:	e9 90 ff ff ff       	jmpq   400bf0 <_init+0x18>

0000000000400c60 <strlen@plt>:
  400c60:	ff 25 e2 23 20 00    	jmpq   *0x2023e2(%rip)        # 603048 <_GLOBAL_OFFSET_TABLE_+0x48>
  400c66:	68 06 00 00 00       	pushq  $0x6
  400c6b:	e9 80 ff ff ff       	jmpq   400bf0 <_init+0x18>

0000000000400c70 <system@plt>:
  400c70:	ff 25 da 23 20 00    	jmpq   *0x2023da(%rip)        # 603050 <_GLOBAL_OFFSET_TABLE_+0x50>
  400c76:	68 07 00 00 00       	pushq  $0x7
  400c7b:	e9 70 ff ff ff       	jmpq   400bf0 <_init+0x18>

0000000000400c80 <htons@plt>:
  400c80:	ff 25 d2 23 20 00    	jmpq   *0x2023d2(%rip)        # 603058 <_GLOBAL_OFFSET_TABLE_+0x58>
  400c86:	68 08 00 00 00       	pushq  $0x8
  400c8b:	e9 60 ff ff ff       	jmpq   400bf0 <_init+0x18>

0000000000400c90 <printf@plt>:
  400c90:	ff 25 ca 23 20 00    	jmpq   *0x2023ca(%rip)        # 603060 <_GLOBAL_OFFSET_TABLE_+0x60>
  400c96:	68 09 00 00 00       	pushq  $0x9
  400c9b:	e9 50 ff ff ff       	jmpq   400bf0 <_init+0x18>

0000000000400ca0 <rewind@plt>:
  400ca0:	ff 25 c2 23 20 00    	jmpq   *0x2023c2(%rip)        # 603068 <_GLOBAL_OFFSET_TABLE_+0x68>
  400ca6:	68 0a 00 00 00       	pushq  $0xa
  400cab:	e9 40 ff ff ff       	jmpq   400bf0 <_init+0x18>

0000000000400cb0 <dup@plt>:
  400cb0:	ff 25 ba 23 20 00    	jmpq   *0x2023ba(%rip)        # 603070 <_GLOBAL_OFFSET_TABLE_+0x70>
  400cb6:	68 0b 00 00 00       	pushq  $0xb
  400cbb:	e9 30 ff ff ff       	jmpq   400bf0 <_init+0x18>

0000000000400cc0 <close@plt>:
  400cc0:	ff 25 b2 23 20 00    	jmpq   *0x2023b2(%rip)        # 603078 <_GLOBAL_OFFSET_TABLE_+0x78>
  400cc6:	68 0c 00 00 00       	pushq  $0xc
  400ccb:	e9 20 ff ff ff       	jmpq   400bf0 <_init+0x18>

0000000000400cd0 <fputc@plt>:
  400cd0:	ff 25 aa 23 20 00    	jmpq   *0x2023aa(%rip)        # 603080 <_GLOBAL_OFFSET_TABLE_+0x80>
  400cd6:	68 0d 00 00 00       	pushq  $0xd
  400cdb:	e9 10 ff ff ff       	jmpq   400bf0 <_init+0x18>

0000000000400ce0 <fgets@plt>:
  400ce0:	ff 25 a2 23 20 00    	jmpq   *0x2023a2(%rip)        # 603088 <_GLOBAL_OFFSET_TABLE_+0x88>
  400ce6:	68 0e 00 00 00       	pushq  $0xe
  400ceb:	e9 00 ff ff ff       	jmpq   400bf0 <_init+0x18>

0000000000400cf0 <tmpfile@plt>:
  400cf0:	ff 25 9a 23 20 00    	jmpq   *0x20239a(%rip)        # 603090 <_GLOBAL_OFFSET_TABLE_+0x90>
  400cf6:	68 0f 00 00 00       	pushq  $0xf
  400cfb:	e9 f0 fe ff ff       	jmpq   400bf0 <_init+0x18>

0000000000400d00 <signal@plt>:
  400d00:	ff 25 92 23 20 00    	jmpq   *0x202392(%rip)        # 603098 <_GLOBAL_OFFSET_TABLE_+0x98>
  400d06:	68 10 00 00 00       	pushq  $0x10
  400d0b:	e9 e0 fe ff ff       	jmpq   400bf0 <_init+0x18>

0000000000400d10 <gethostbyname@plt>:
  400d10:	ff 25 8a 23 20 00    	jmpq   *0x20238a(%rip)        # 6030a0 <_GLOBAL_OFFSET_TABLE_+0xa0>
  400d16:	68 11 00 00 00       	pushq  $0x11
  400d1b:	e9 d0 fe ff ff       	jmpq   400bf0 <_init+0x18>

0000000000400d20 <fprintf@plt>:
  400d20:	ff 25 82 23 20 00    	jmpq   *0x202382(%rip)        # 6030a8 <_GLOBAL_OFFSET_TABLE_+0xa8>
  400d26:	68 12 00 00 00       	pushq  $0x12
  400d2b:	e9 c0 fe ff ff       	jmpq   400bf0 <_init+0x18>

0000000000400d30 <inet_pton@plt>:
  400d30:	ff 25 7a 23 20 00    	jmpq   *0x20237a(%rip)        # 6030b0 <_GLOBAL_OFFSET_TABLE_+0xb0>
  400d36:	68 13 00 00 00       	pushq  $0x13
  400d3b:	e9 b0 fe ff ff       	jmpq   400bf0 <_init+0x18>

0000000000400d40 <fflush@plt>:
  400d40:	ff 25 72 23 20 00    	jmpq   *0x202372(%rip)        # 6030b8 <_GLOBAL_OFFSET_TABLE_+0xb8>
  400d46:	68 14 00 00 00       	pushq  $0x14
  400d4b:	e9 a0 fe ff ff       	jmpq   400bf0 <_init+0x18>

0000000000400d50 <__isoc99_sscanf@plt>:
  400d50:	ff 25 6a 23 20 00    	jmpq   *0x20236a(%rip)        # 6030c0 <_GLOBAL_OFFSET_TABLE_+0xc0>
  400d56:	68 15 00 00 00       	pushq  $0x15
  400d5b:	e9 90 fe ff ff       	jmpq   400bf0 <_init+0x18>

0000000000400d60 <bcopy@plt>:
  400d60:	ff 25 62 23 20 00    	jmpq   *0x202362(%rip)        # 6030c8 <_GLOBAL_OFFSET_TABLE_+0xc8>
  400d66:	68 16 00 00 00       	pushq  $0x16
  400d6b:	e9 80 fe ff ff       	jmpq   400bf0 <_init+0x18>

0000000000400d70 <cuserid@plt>:
  400d70:	ff 25 5a 23 20 00    	jmpq   *0x20235a(%rip)        # 6030d0 <_GLOBAL_OFFSET_TABLE_+0xd0>
  400d76:	68 17 00 00 00       	pushq  $0x17
  400d7b:	e9 70 fe ff ff       	jmpq   400bf0 <_init+0x18>

0000000000400d80 <fopen@plt>:
  400d80:	ff 25 52 23 20 00    	jmpq   *0x202352(%rip)        # 6030d8 <_GLOBAL_OFFSET_TABLE_+0xd8>
  400d86:	68 18 00 00 00       	pushq  $0x18
  400d8b:	e9 60 fe ff ff       	jmpq   400bf0 <_init+0x18>

0000000000400d90 <bzero@plt>:
  400d90:	ff 25 4a 23 20 00    	jmpq   *0x20234a(%rip)        # 6030e0 <_GLOBAL_OFFSET_TABLE_+0xe0>
  400d96:	68 19 00 00 00       	pushq  $0x19
  400d9b:	e9 50 fe ff ff       	jmpq   400bf0 <_init+0x18>

0000000000400da0 <strcat@plt>:
  400da0:	ff 25 42 23 20 00    	jmpq   *0x202342(%rip)        # 6030e8 <_GLOBAL_OFFSET_TABLE_+0xe8>
  400da6:	68 1a 00 00 00       	pushq  $0x1a
  400dab:	e9 40 fe ff ff       	jmpq   400bf0 <_init+0x18>

0000000000400db0 <sprintf@plt>:
  400db0:	ff 25 3a 23 20 00    	jmpq   *0x20233a(%rip)        # 6030f0 <_GLOBAL_OFFSET_TABLE_+0xf0>
  400db6:	68 1b 00 00 00       	pushq  $0x1b
  400dbb:	e9 30 fe ff ff       	jmpq   400bf0 <_init+0x18>

0000000000400dc0 <exit@plt>:
  400dc0:	ff 25 32 23 20 00    	jmpq   *0x202332(%rip)        # 6030f8 <_GLOBAL_OFFSET_TABLE_+0xf8>
  400dc6:	68 1c 00 00 00       	pushq  $0x1c
  400dcb:	e9 20 fe ff ff       	jmpq   400bf0 <_init+0x18>

0000000000400dd0 <connect@plt>:
  400dd0:	ff 25 2a 23 20 00    	jmpq   *0x20232a(%rip)        # 603100 <_GLOBAL_OFFSET_TABLE_+0x100>
  400dd6:	68 1d 00 00 00       	pushq  $0x1d
  400ddb:	e9 10 fe ff ff       	jmpq   400bf0 <_init+0x18>

0000000000400de0 <fwrite@plt>:
  400de0:	ff 25 22 23 20 00    	jmpq   *0x202322(%rip)        # 603108 <_GLOBAL_OFFSET_TABLE_+0x108>
  400de6:	68 1e 00 00 00       	pushq  $0x1e
  400deb:	e9 00 fe ff ff       	jmpq   400bf0 <_init+0x18>

0000000000400df0 <sleep@plt>:
  400df0:	ff 25 1a 23 20 00    	jmpq   *0x20231a(%rip)        # 603110 <_GLOBAL_OFFSET_TABLE_+0x110>
  400df6:	68 1f 00 00 00       	pushq  $0x1f
  400dfb:	e9 f0 fd ff ff       	jmpq   400bf0 <_init+0x18>

0000000000400e00 <__ctype_b_loc@plt>:
  400e00:	ff 25 12 23 20 00    	jmpq   *0x202312(%rip)        # 603118 <_GLOBAL_OFFSET_TABLE_+0x118>
  400e06:	68 20 00 00 00       	pushq  $0x20
  400e0b:	e9 e0 fd ff ff       	jmpq   400bf0 <_init+0x18>

0000000000400e10 <socket@plt>:
  400e10:	ff 25 0a 23 20 00    	jmpq   *0x20230a(%rip)        # 603120 <_GLOBAL_OFFSET_TABLE_+0x120>
  400e16:	68 21 00 00 00       	pushq  $0x21
  400e1b:	e9 d0 fd ff ff       	jmpq   400bf0 <_init+0x18>

Disassembly of section .text:

0000000000400e20 <_start>:
  400e20:	31 ed                	xor    %ebp,%ebp
  400e22:	49 89 d1             	mov    %rdx,%r9
  400e25:	5e                   	pop    %rsi
  400e26:	48 89 e2             	mov    %rsp,%rdx
  400e29:	48 83 e4 f0          	and    $0xfffffffffffffff0,%rsp
  400e2d:	50                   	push   %rax
  400e2e:	54                   	push   %rsp
  400e2f:	49 c7 c0 30 1f 40 00 	mov    $0x401f30,%r8
  400e36:	48 c7 c1 c0 1e 40 00 	mov    $0x401ec0,%rcx
  400e3d:	48 c7 c7 16 0f 40 00 	mov    $0x400f16,%rdi
  400e44:	ff 15 a6 21 20 00    	callq  *0x2021a6(%rip)        # 602ff0 <_DYNAMIC+0x1d0>
  400e4a:	f4                   	hlt    
  400e4b:	0f 1f 44 00 00       	nopl   0x0(%rax,%rax,1)

0000000000400e50 <deregister_tm_clones>:
  400e50:	b8 97 35 60 00       	mov    $0x603597,%eax
  400e55:	55                   	push   %rbp
  400e56:	48 2d 90 35 60 00    	sub    $0x603590,%rax
  400e5c:	48 83 f8 0e          	cmp    $0xe,%rax
  400e60:	48 89 e5             	mov    %rsp,%rbp
  400e63:	76 1b                	jbe    400e80 <deregister_tm_clones+0x30>
  400e65:	b8 00 00 00 00       	mov    $0x0,%eax
  400e6a:	48 85 c0             	test   %rax,%rax
  400e6d:	74 11                	je     400e80 <deregister_tm_clones+0x30>
  400e6f:	5d                   	pop    %rbp
  400e70:	bf 90 35 60 00       	mov    $0x603590,%edi
  400e75:	ff e0                	jmpq   *%rax
  400e77:	66 0f 1f 84 00 00 00 	nopw   0x0(%rax,%rax,1)
  400e7e:	00 00 
  400e80:	5d                   	pop    %rbp
  400e81:	c3                   	retq   
  400e82:	0f 1f 40 00          	nopl   0x0(%rax)
  400e86:	66 2e 0f 1f 84 00 00 	nopw   %cs:0x0(%rax,%rax,1)
  400e8d:	00 00 00 

0000000000400e90 <register_tm_clones>:
  400e90:	be 90 35 60 00       	mov    $0x603590,%esi
  400e95:	55                   	push   %rbp
  400e96:	48 81 ee 90 35 60 00 	sub    $0x603590,%rsi
  400e9d:	48 c1 fe 03          	sar    $0x3,%rsi
  400ea1:	48 89 e5             	mov    %rsp,%rbp
  400ea4:	48 89 f0             	mov    %rsi,%rax
  400ea7:	48 c1 e8 3f          	shr    $0x3f,%rax
  400eab:	48 01 c6             	add    %rax,%rsi
  400eae:	48 d1 fe             	sar    %rsi
  400eb1:	74 15                	je     400ec8 <register_tm_clones+0x38>
  400eb3:	b8 00 00 00 00       	mov    $0x0,%eax
  400eb8:	48 85 c0             	test   %rax,%rax
  400ebb:	74 0b                	je     400ec8 <register_tm_clones+0x38>
  400ebd:	5d                   	pop    %rbp
  400ebe:	bf 90 35 60 00       	mov    $0x603590,%edi
  400ec3:	ff e0                	jmpq   *%rax
  400ec5:	0f 1f 00             	nopl   (%rax)
  400ec8:	5d                   	pop    %rbp
  400ec9:	c3                   	retq   
  400eca:	66 0f 1f 44 00 00    	nopw   0x0(%rax,%rax,1)

0000000000400ed0 <__do_global_dtors_aux>:
  400ed0:	80 3d e1 26 20 00 00 	cmpb   $0x0,0x2026e1(%rip)        # 6035b8 <completed.6963>
  400ed7:	75 11                	jne    400eea <__do_global_dtors_aux+0x1a>
  400ed9:	55                   	push   %rbp
  400eda:	48 89 e5             	mov    %rsp,%rbp
  400edd:	e8 6e ff ff ff       	callq  400e50 <deregister_tm_clones>
  400ee2:	5d                   	pop    %rbp
  400ee3:	c6 05 ce 26 20 00 01 	movb   $0x1,0x2026ce(%rip)        # 6035b8 <completed.6963>
  400eea:	f3 c3                	repz retq 
  400eec:	0f 1f 40 00          	nopl   0x0(%rax)

0000000000400ef0 <frame_dummy>:
  400ef0:	bf 18 2e 60 00       	mov    $0x602e18,%edi
  400ef5:	48 83 3f 00          	cmpq   $0x0,(%rdi)
  400ef9:	75 05                	jne    400f00 <frame_dummy+0x10>
  400efb:	eb 93                	jmp    400e90 <register_tm_clones>
  400efd:	0f 1f 00             	nopl   (%rax)
  400f00:	b8 00 00 00 00       	mov    $0x0,%eax
  400f05:	48 85 c0             	test   %rax,%rax
  400f08:	74 f1                	je     400efb <frame_dummy+0xb>
  400f0a:	55                   	push   %rbp
  400f0b:	48 89 e5             	mov    %rsp,%rbp
  400f0e:	ff d0                	callq  *%rax
  400f10:	5d                   	pop    %rbp
  400f11:	e9 7a ff ff ff       	jmpq   400e90 <register_tm_clones>

0000000000400f16 <main>:
  400f16:	55                   	push   %rbp
  400f17:	48 89 e5             	mov    %rsp,%rbp
  400f1a:	48 83 ec 20          	sub    $0x20,%rsp
  400f1e:	89 7d ec             	mov    %edi,-0x14(%rbp)
  400f21:	48 89 75 e0          	mov    %rsi,-0x20(%rbp)
  400f25:	83 7d ec 01          	cmpl   $0x1,-0x14(%rbp)
  400f29:	75 13                	jne    400f3e <main+0x28>
  400f2b:	48 8b 05 7e 26 20 00 	mov    0x20267e(%rip),%rax        # 6035b0 <stdin@@GLIBC_2.2.5>
  400f32:	48 89 05 87 26 20 00 	mov    %rax,0x202687(%rip)        # 6035c0 <infile>
  400f39:	e9 88 00 00 00       	jmpq   400fc6 <main+0xb0>
  400f3e:	83 7d ec 02          	cmpl   $0x2,-0x14(%rbp)
  400f42:	75 5d                	jne    400fa1 <main+0x8b>
  400f44:	48 8b 45 e0          	mov    -0x20(%rbp),%rax
  400f48:	48 83 c0 08          	add    $0x8,%rax
  400f4c:	48 8b 00             	mov    (%rax),%rax
  400f4f:	48 8d 35 f2 0f 00 00 	lea    0xff2(%rip),%rsi        # 401f48 <_IO_stdin_used+0x8>
  400f56:	48 89 c7             	mov    %rax,%rdi
  400f59:	e8 22 fe ff ff       	callq  400d80 <fopen@plt>
  400f5e:	48 89 05 5b 26 20 00 	mov    %rax,0x20265b(%rip)        # 6035c0 <infile>
  400f65:	48 8b 05 54 26 20 00 	mov    0x202654(%rip),%rax        # 6035c0 <infile>
  400f6c:	48 85 c0             	test   %rax,%rax
  400f6f:	75 55                	jne    400fc6 <main+0xb0>
  400f71:	48 8b 45 e0          	mov    -0x20(%rbp),%rax
  400f75:	48 83 c0 08          	add    $0x8,%rax
  400f79:	48 8b 10             	mov    (%rax),%rdx
  400f7c:	48 8b 45 e0          	mov    -0x20(%rbp),%rax
  400f80:	48 8b 00             	mov    (%rax),%rax
  400f83:	48 89 c6             	mov    %rax,%rsi
  400f86:	48 8d 3d bd 0f 00 00 	lea    0xfbd(%rip),%rdi        # 401f4a <_IO_stdin_used+0xa>
  400f8d:	b8 00 00 00 00       	mov    $0x0,%eax
  400f92:	e8 f9 fc ff ff       	callq  400c90 <printf@plt>
  400f97:	bf 08 00 00 00       	mov    $0x8,%edi
  400f9c:	e8 1f fe ff ff       	callq  400dc0 <exit@plt>
  400fa1:	48 8b 45 e0          	mov    -0x20(%rbp),%rax
  400fa5:	48 8b 00             	mov    (%rax),%rax
  400fa8:	48 89 c6             	mov    %rax,%rsi
  400fab:	48 8d 3d b5 0f 00 00 	lea    0xfb5(%rip),%rdi        # 401f67 <_IO_stdin_used+0x27>
  400fb2:	b8 00 00 00 00       	mov    $0x0,%eax
  400fb7:	e8 d4 fc ff ff       	callq  400c90 <printf@plt>
  400fbc:	bf 08 00 00 00       	mov    $0x8,%edi
  400fc1:	e8 fa fd ff ff       	callq  400dc0 <exit@plt>
  400fc6:	e8 21 05 00 00       	callq  4014ec <initialize_bomb>
  400fcb:	48 8d 3d b6 0f 00 00 	lea    0xfb6(%rip),%rdi        # 401f88 <_IO_stdin_used+0x48>
  400fd2:	e8 59 fc ff ff       	callq  400c30 <puts@plt>
  400fd7:	48 8d 3d ea 0f 00 00 	lea    0xfea(%rip),%rdi        # 401fc8 <_IO_stdin_used+0x88>
  400fde:	e8 4d fc ff ff       	callq  400c30 <puts@plt>
  400fe3:	e8 ec 05 00 00       	callq  4015d4 <read_line>
  400fe8:	48 89 45 f8          	mov    %rax,-0x8(%rbp)
  400fec:	48 8b 45 f8          	mov    -0x8(%rbp),%rax
  400ff0:	48 89 c7             	mov    %rax,%rdi
  400ff3:	e8 58 00 00 00       	callq  401050 <phase_1>
  400ff8:	e8 ee 0d 00 00       	callq  401deb <phase_defused>
  400ffd:	48 8d 3d f4 0f 00 00 	lea    0xff4(%rip),%rdi        # 401ff8 <_IO_stdin_used+0xb8>
  401004:	e8 27 fc ff ff       	callq  400c30 <puts@plt>
  401009:	e8 c6 05 00 00       	callq  4015d4 <read_line>
  40100e:	48 89 45 f8          	mov    %rax,-0x8(%rbp)
  401012:	48 8b 45 f8          	mov    -0x8(%rbp),%rax
  401016:	48 89 c7             	mov    %rax,%rdi
  401019:	e8 5d 00 00 00       	callq  40107b <phase_2>
  40101e:	e8 c8 0d 00 00       	callq  401deb <phase_defused>
  401023:	48 8d 3d f7 0f 00 00 	lea    0xff7(%rip),%rdi        # 402021 <_IO_stdin_used+0xe1>
  40102a:	e8 01 fc ff ff       	callq  400c30 <puts@plt>
  40102f:	e8 a0 05 00 00       	callq  4015d4 <read_line>
  401034:	48 89 45 f8          	mov    %rax,-0x8(%rbp)
  401038:	48 8b 45 f8          	mov    -0x8(%rbp),%rax
  40103c:	48 89 c7             	mov    %rax,%rdi
  40103f:	e8 a3 00 00 00       	callq  4010e7 <phase_3>
  401044:	e8 a2 0d 00 00       	callq  401deb <phase_defused>
  401049:	b8 00 00 00 00       	mov    $0x0,%eax
  40104e:	c9                   	leaveq 
  40104f:	c3                   	retq   

0000000000401050 <phase_1>:
  401050:	55                   	push   %rbp
  401051:	48 89 e5             	mov    %rsp,%rbp
  401054:	48 83 ec 10          	sub    $0x10,%rsp
  401058:	48 89 7d f8          	mov    %rdi,-0x8(%rbp)
  40105c:	48 8b 45 f8          	mov    -0x8(%rbp),%rax
  401060:	48 8d 35 d9 0f 00 00 	lea    0xfd9(%rip),%rsi        # 402040 <_IO_stdin_used+0x100>
  401067:	48 89 c7             	mov    %rax,%rdi
  40106a:	e8 07 03 00 00       	callq  401376 <strings_not_equal>
  40106f:	85 c0                	test   %eax,%eax
  401071:	74 05                	je     401078 <phase_1+0x28>
  401073:	e8 37 0d 00 00       	callq  401daf <explode_bomb>
  401078:	90                   	nop
  401079:	c9                   	leaveq 
  40107a:	c3                   	retq   

000000000040107b <phase_2>:
  40107b:	55                   	push   %rbp
  40107c:	48 89 e5             	mov    %rsp,%rbp
  40107f:	48 83 ec 30          	sub    $0x30,%rsp
  401083:	48 89 7d d8          	mov    %rdi,-0x28(%rbp)
  401087:	48 8d 55 e0          	lea    -0x20(%rbp),%rdx
  40108b:	48 8b 45 d8          	mov    -0x28(%rbp),%rax
  40108f:	48 89 d6             	mov    %rdx,%rsi
  401092:	48 89 c7             	mov    %rax,%rdi
  401095:	e8 3f 02 00 00       	callq  4012d9 <read_six_numbers>
  40109a:	8b 45 e0             	mov    -0x20(%rbp),%eax
  40109d:	83 f8 01             	cmp    $0x1,%eax
  4010a0:	74 05                	je     4010a7 <phase_2+0x2c>
  4010a2:	e8 08 0d 00 00       	callq  401daf <explode_bomb>
  4010a7:	c7 45 fc 01 00 00 00 	movl   $0x1,-0x4(%rbp)
  4010ae:	eb 2e                	jmp    4010de <phase_2+0x63>
  4010b0:	8b 45 fc             	mov    -0x4(%rbp),%eax
  4010b3:	48 98                	cltq   
  4010b5:	8b 54 85 e0          	mov    -0x20(%rbp,%rax,4),%edx
  4010b9:	8b 45 fc             	mov    -0x4(%rbp),%eax
  4010bc:	83 e8 01             	sub    $0x1,%eax
  4010bf:	48 98                	cltq   
  4010c1:	8b 44 85 e0          	mov    -0x20(%rbp,%rax,4),%eax
  4010c5:	8b 4d fc             	mov    -0x4(%rbp),%ecx
  4010c8:	83 c1 01             	add    $0x1,%ecx
  4010cb:	0f af c1             	imul   %ecx,%eax
  4010ce:	83 e8 01             	sub    $0x1,%eax
  4010d1:	39 c2                	cmp    %eax,%edx
  4010d3:	74 05                	je     4010da <phase_2+0x5f>
  4010d5:	e8 d5 0c 00 00       	callq  401daf <explode_bomb>
  4010da:	83 45 fc 01          	addl   $0x1,-0x4(%rbp)
  4010de:	83 7d fc 05          	cmpl   $0x5,-0x4(%rbp)
  4010e2:	7e cc                	jle    4010b0 <phase_2+0x35>
  4010e4:	90                   	nop
  4010e5:	c9                   	leaveq 
  4010e6:	c3                   	retq   

00000000004010e7 <phase_3>:
  4010e7:	55                   	push   %rbp
  4010e8:	48 89 e5             	mov    %rsp,%rbp
  4010eb:	48 83 ec 20          	sub    $0x20,%rsp
  4010ef:	48 89 7d e8          	mov    %rdi,-0x18(%rbp)
  4010f3:	c7 45 fc 00 00 00 00 	movl   $0x0,-0x4(%rbp)
  4010fa:	c7 45 f8 00 00 00 00 	movl   $0x0,-0x8(%rbp)
  401101:	48 8d 4d f0          	lea    -0x10(%rbp),%rcx
  401105:	48 8d 55 f4          	lea    -0xc(%rbp),%rdx
  401109:	48 8b 45 e8          	mov    -0x18(%rbp),%rax
  40110d:	48 8d 35 5b 0f 00 00 	lea    0xf5b(%rip),%rsi        # 40206f <_IO_stdin_used+0x12f>
  401114:	48 89 c7             	mov    %rax,%rdi
  401117:	b8 00 00 00 00       	mov    $0x0,%eax
  40111c:	e8 2f fc ff ff       	callq  400d50 <__isoc99_sscanf@plt>
  401121:	89 45 f8             	mov    %eax,-0x8(%rbp)
  401124:	83 7d f8 01          	cmpl   $0x1,-0x8(%rbp)
  401128:	7f 05                	jg     40112f <phase_3+0x48>
  40112a:	e8 80 0c 00 00       	callq  401daf <explode_bomb>
  40112f:	8b 45 f4             	mov    -0xc(%rbp),%eax
  401132:	83 f8 07             	cmp    $0x7,%eax
  401135:	77 6b                	ja     4011a2 <phase_3+0xbb>
  401137:	89 c0                	mov    %eax,%eax
  401139:	48 8d 14 85 00 00 00 	lea    0x0(,%rax,4),%rdx
  401140:	00 
  401141:	48 8d 05 30 0f 00 00 	lea    0xf30(%rip),%rax        # 402078 <_IO_stdin_used+0x138>
  401148:	8b 04 02             	mov    (%rdx,%rax,1),%eax
  40114b:	48 63 d0             	movslq %eax,%rdx
  40114e:	48 8d 05 23 0f 00 00 	lea    0xf23(%rip),%rax        # 402078 <_IO_stdin_used+0x138>
  401155:	48 01 d0             	add    %rdx,%rax
  401158:	ff e0                	jmpq   *%rax
  40115a:	c7 45 fc bd 02 00 00 	movl   $0x2bd,-0x4(%rbp)
  401161:	eb 44                	jmp    4011a7 <phase_3+0xc0>
  401163:	c7 45 fc 6b 00 00 00 	movl   $0x6b,-0x4(%rbp)
  40116a:	eb 3b                	jmp    4011a7 <phase_3+0xc0>
  40116c:	c7 45 fc 47 03 00 00 	movl   $0x347,-0x4(%rbp)
  401173:	eb 32                	jmp    4011a7 <phase_3+0xc0>
  401175:	c7 45 fc 98 01 00 00 	movl   $0x198,-0x4(%rbp)
  40117c:	eb 29                	jmp    4011a7 <phase_3+0xc0>
  40117e:	c7 45 fc 30 03 00 00 	movl   $0x330,-0x4(%rbp)
  401185:	eb 20                	jmp    4011a7 <phase_3+0xc0>
  401187:	c7 45 fc a8 01 00 00 	movl   $0x1a8,-0x4(%rbp)
  40118e:	eb 17                	jmp    4011a7 <phase_3+0xc0>
  401190:	c7 45 fc 40 01 00 00 	movl   $0x140,-0x4(%rbp)
  401197:	eb 0e                	jmp    4011a7 <phase_3+0xc0>
  401199:	c7 45 fc e5 00 00 00 	movl   $0xe5,-0x4(%rbp)
  4011a0:	eb 05                	jmp    4011a7 <phase_3+0xc0>
  4011a2:	e8 08 0c 00 00       	callq  401daf <explode_bomb>
  4011a7:	8b 45 f0             	mov    -0x10(%rbp),%eax
  4011aa:	39 45 fc             	cmp    %eax,-0x4(%rbp)
  4011ad:	74 05                	je     4011b4 <phase_3+0xcd>
  4011af:	e8 fb 0b 00 00       	callq  401daf <explode_bomb>
  4011b4:	90                   	nop
  4011b5:	c9                   	leaveq 
  4011b6:	c3                   	retq   

00000000004011b7 <secret_phase>:
  4011b7:	55                   	push   %rbp
  4011b8:	48 89 e5             	mov    %rsp,%rbp
  4011bb:	48 83 ec 20          	sub    $0x20,%rsp
  4011bf:	e8 10 04 00 00       	callq  4015d4 <read_line>
  4011c4:	48 89 45 f0          	mov    %rax,-0x10(%rbp)
  4011c8:	48 8b 45 f0          	mov    -0x10(%rbp),%rax
  4011cc:	48 89 c7             	mov    %rax,%rdi
  4011cf:	e8 70 01 00 00       	callq  401344 <string_length>
  4011d4:	89 45 ec             	mov    %eax,-0x14(%rbp)
  4011d7:	83 7d ec 06          	cmpl   $0x6,-0x14(%rbp)
  4011db:	74 05                	je     4011e2 <secret_phase+0x2b>
  4011dd:	e8 cd 0b 00 00       	callq  401daf <explode_bomb>
  4011e2:	c7 45 fc 00 00 00 00 	movl   $0x0,-0x4(%rbp)
  4011e9:	eb 31                	jmp    40121c <secret_phase+0x65>
  4011eb:	8b 45 fc             	mov    -0x4(%rbp),%eax
  4011ee:	48 63 d0             	movslq %eax,%rdx
  4011f1:	48 8b 45 f0          	mov    -0x10(%rbp),%rax
  4011f5:	48 01 d0             	add    %rdx,%rax
  4011f8:	0f b6 00             	movzbl (%rax),%eax
  4011fb:	0f be c0             	movsbl %al,%eax
  4011fe:	83 e0 0f             	and    $0xf,%eax
  401201:	48 63 d0             	movslq %eax,%rdx
  401204:	48 8d 05 75 23 20 00 	lea    0x202375(%rip),%rax        # 603580 <array.2937>
  40120b:	0f b6 14 02          	movzbl (%rdx,%rax,1),%edx
  40120f:	8b 45 fc             	mov    -0x4(%rbp),%eax
  401212:	48 98                	cltq   
  401214:	88 54 05 e5          	mov    %dl,-0x1b(%rbp,%rax,1)
  401218:	83 45 fc 01          	addl   $0x1,-0x4(%rbp)
  40121c:	83 7d fc 05          	cmpl   $0x5,-0x4(%rbp)
  401220:	7e c9                	jle    4011eb <secret_phase+0x34>
  401222:	c6 45 eb 00          	movb   $0x0,-0x15(%rbp)
  401226:	48 8d 45 e5          	lea    -0x1b(%rbp),%rax
  40122a:	48 8d 35 67 0e 00 00 	lea    0xe67(%rip),%rsi        # 402098 <_IO_stdin_used+0x158>
  401231:	48 89 c7             	mov    %rax,%rdi
  401234:	e8 3d 01 00 00       	callq  401376 <strings_not_equal>
  401239:	85 c0                	test   %eax,%eax
  40123b:	74 05                	je     401242 <secret_phase+0x8b>
  40123d:	e8 6d 0b 00 00       	callq  401daf <explode_bomb>
  401242:	e8 a4 0b 00 00       	callq  401deb <phase_defused>
  401247:	90                   	nop
  401248:	c9                   	leaveq 
  401249:	c3                   	retq   

000000000040124a <sig_handler>:
  40124a:	55                   	push   %rbp
  40124b:	48 89 e5             	mov    %rsp,%rbp
  40124e:	48 83 ec 10          	sub    $0x10,%rsp
  401252:	89 7d fc             	mov    %edi,-0x4(%rbp)
  401255:	48 8d 3d 44 0e 00 00 	lea    0xe44(%rip),%rdi        # 4020a0 <_IO_stdin_used+0x160>
  40125c:	e8 cf f9 ff ff       	callq  400c30 <puts@plt>
  401261:	bf 03 00 00 00       	mov    $0x3,%edi
  401266:	e8 85 fb ff ff       	callq  400df0 <sleep@plt>
  40126b:	48 8d 3d 66 0e 00 00 	lea    0xe66(%rip),%rdi        # 4020d8 <_IO_stdin_used+0x198>
  401272:	b8 00 00 00 00       	mov    $0x0,%eax
  401277:	e8 14 fa ff ff       	callq  400c90 <printf@plt>
  40127c:	48 8b 05 1d 23 20 00 	mov    0x20231d(%rip),%rax        # 6035a0 <stdout@@GLIBC_2.2.5>
  401283:	48 89 c7             	mov    %rax,%rdi
  401286:	e8 b5 fa ff ff       	callq  400d40 <fflush@plt>
  40128b:	bf 01 00 00 00       	mov    $0x1,%edi
  401290:	e8 5b fb ff ff       	callq  400df0 <sleep@plt>
  401295:	48 8d 3d 44 0e 00 00 	lea    0xe44(%rip),%rdi        # 4020e0 <_IO_stdin_used+0x1a0>
  40129c:	e8 8f f9 ff ff       	callq  400c30 <puts@plt>
  4012a1:	bf 10 00 00 00       	mov    $0x10,%edi
  4012a6:	e8 15 fb ff ff       	callq  400dc0 <exit@plt>

00000000004012ab <invalid_phase>:
  4012ab:	55                   	push   %rbp
  4012ac:	48 89 e5             	mov    %rsp,%rbp
  4012af:	48 83 ec 10          	sub    $0x10,%rsp
  4012b3:	48 89 7d f8          	mov    %rdi,-0x8(%rbp)
  4012b7:	48 8b 45 f8          	mov    -0x8(%rbp),%rax
  4012bb:	48 89 c6             	mov    %rax,%rsi
  4012be:	48 8d 3d 23 0e 00 00 	lea    0xe23(%rip),%rdi        # 4020e8 <_IO_stdin_used+0x1a8>
  4012c5:	b8 00 00 00 00       	mov    $0x0,%eax
  4012ca:	e8 c1 f9 ff ff       	callq  400c90 <printf@plt>
  4012cf:	bf 08 00 00 00       	mov    $0x8,%edi
  4012d4:	e8 e7 fa ff ff       	callq  400dc0 <exit@plt>

00000000004012d9 <read_six_numbers>:
  4012d9:	55                   	push   %rbp
  4012da:	48 89 e5             	mov    %rsp,%rbp
  4012dd:	48 83 ec 20          	sub    $0x20,%rsp
  4012e1:	48 89 7d e8          	mov    %rdi,-0x18(%rbp)
  4012e5:	48 89 75 e0          	mov    %rsi,-0x20(%rbp)
  4012e9:	48 8b 45 e0          	mov    -0x20(%rbp),%rax
  4012ed:	48 8d 78 14          	lea    0x14(%rax),%rdi
  4012f1:	48 8b 45 e0          	mov    -0x20(%rbp),%rax
  4012f5:	48 8d 70 10          	lea    0x10(%rax),%rsi
  4012f9:	48 8b 45 e0          	mov    -0x20(%rbp),%rax
  4012fd:	4c 8d 48 0c          	lea    0xc(%rax),%r9
  401301:	48 8b 45 e0          	mov    -0x20(%rbp),%rax
  401305:	4c 8d 40 08          	lea    0x8(%rax),%r8
  401309:	48 8b 45 e0          	mov    -0x20(%rbp),%rax
  40130d:	48 8d 48 04          	lea    0x4(%rax),%rcx
  401311:	48 8b 55 e0          	mov    -0x20(%rbp),%rdx
  401315:	48 8b 45 e8          	mov    -0x18(%rbp),%rax
  401319:	57                   	push   %rdi
  40131a:	56                   	push   %rsi
  40131b:	48 8d 35 d7 0d 00 00 	lea    0xdd7(%rip),%rsi        # 4020f9 <_IO_stdin_used+0x1b9>
  401322:	48 89 c7             	mov    %rax,%rdi
  401325:	b8 00 00 00 00       	mov    $0x0,%eax
  40132a:	e8 21 fa ff ff       	callq  400d50 <__isoc99_sscanf@plt>
  40132f:	48 83 c4 10          	add    $0x10,%rsp
  401333:	89 45 fc             	mov    %eax,-0x4(%rbp)
  401336:	83 7d fc 05          	cmpl   $0x5,-0x4(%rbp)
  40133a:	7f 05                	jg     401341 <read_six_numbers+0x68>
  40133c:	e8 6e 0a 00 00       	callq  401daf <explode_bomb>
  401341:	90                   	nop
  401342:	c9                   	leaveq 
  401343:	c3                   	retq   

0000000000401344 <string_length>:
  401344:	55                   	push   %rbp
  401345:	48 89 e5             	mov    %rsp,%rbp
  401348:	48 89 7d e8          	mov    %rdi,-0x18(%rbp)
  40134c:	48 8b 45 e8          	mov    -0x18(%rbp),%rax
  401350:	48 89 45 f0          	mov    %rax,-0x10(%rbp)
  401354:	c7 45 fc 00 00 00 00 	movl   $0x0,-0x4(%rbp)
  40135b:	eb 09                	jmp    401366 <string_length+0x22>
  40135d:	48 83 45 f0 01       	addq   $0x1,-0x10(%rbp)
  401362:	83 45 fc 01          	addl   $0x1,-0x4(%rbp)
  401366:	48 8b 45 f0          	mov    -0x10(%rbp),%rax
  40136a:	0f b6 00             	movzbl (%rax),%eax
  40136d:	84 c0                	test   %al,%al
  40136f:	75 ec                	jne    40135d <string_length+0x19>
  401371:	8b 45 fc             	mov    -0x4(%rbp),%eax
  401374:	5d                   	pop    %rbp
  401375:	c3                   	retq   

0000000000401376 <strings_not_equal>:
  401376:	55                   	push   %rbp
  401377:	48 89 e5             	mov    %rsp,%rbp
  40137a:	53                   	push   %rbx
  40137b:	48 83 ec 20          	sub    $0x20,%rsp
  40137f:	48 89 7d e0          	mov    %rdi,-0x20(%rbp)
  401383:	48 89 75 d8          	mov    %rsi,-0x28(%rbp)
  401387:	48 8b 45 e0          	mov    -0x20(%rbp),%rax
  40138b:	48 89 c7             	mov    %rax,%rdi
  40138e:	e8 b1 ff ff ff       	callq  401344 <string_length>
  401393:	89 c3                	mov    %eax,%ebx
  401395:	48 8b 45 d8          	mov    -0x28(%rbp),%rax
  401399:	48 89 c7             	mov    %rax,%rdi
  40139c:	e8 a3 ff ff ff       	callq  401344 <string_length>
  4013a1:	39 c3                	cmp    %eax,%ebx
  4013a3:	74 07                	je     4013ac <strings_not_equal+0x36>
  4013a5:	b8 01 00 00 00       	mov    $0x1,%eax
  4013aa:	eb 45                	jmp    4013f1 <strings_not_equal+0x7b>
  4013ac:	48 8b 45 e0          	mov    -0x20(%rbp),%rax
  4013b0:	48 89 45 f0          	mov    %rax,-0x10(%rbp)
  4013b4:	48 8b 45 d8          	mov    -0x28(%rbp),%rax
  4013b8:	48 89 45 e8          	mov    %rax,-0x18(%rbp)
  4013bc:	eb 23                	jmp    4013e1 <strings_not_equal+0x6b>
  4013be:	48 8b 45 f0          	mov    -0x10(%rbp),%rax
  4013c2:	0f b6 10             	movzbl (%rax),%edx
  4013c5:	48 8b 45 e8          	mov    -0x18(%rbp),%rax
  4013c9:	0f b6 00             	movzbl (%rax),%eax
  4013cc:	38 c2                	cmp    %al,%dl
  4013ce:	74 07                	je     4013d7 <strings_not_equal+0x61>
  4013d0:	b8 01 00 00 00       	mov    $0x1,%eax
  4013d5:	eb 1a                	jmp    4013f1 <strings_not_equal+0x7b>
  4013d7:	48 83 45 f0 01       	addq   $0x1,-0x10(%rbp)
  4013dc:	48 83 45 e8 01       	addq   $0x1,-0x18(%rbp)
  4013e1:	48 8b 45 f0          	mov    -0x10(%rbp),%rax
  4013e5:	0f b6 00             	movzbl (%rax),%eax
  4013e8:	84 c0                	test   %al,%al
  4013ea:	75 d2                	jne    4013be <strings_not_equal+0x48>
  4013ec:	b8 00 00 00 00       	mov    $0x0,%eax
  4013f1:	48 83 c4 20          	add    $0x20,%rsp
  4013f5:	5b                   	pop    %rbx
  4013f6:	5d                   	pop    %rbp
  4013f7:	c3                   	retq   

00000000004013f8 <open_clientfd>:
  4013f8:	55                   	push   %rbp
  4013f9:	48 89 e5             	mov    %rsp,%rbp
  4013fc:	48 83 ec 30          	sub    $0x30,%rsp
  401400:	48 89 7d d8          	mov    %rdi,-0x28(%rbp)
  401404:	89 75 d4             	mov    %esi,-0x2c(%rbp)
  401407:	ba 00 00 00 00       	mov    $0x0,%edx
  40140c:	be 01 00 00 00       	mov    $0x1,%esi
  401411:	bf 02 00 00 00       	mov    $0x2,%edi
  401416:	e8 f5 f9 ff ff       	callq  400e10 <socket@plt>
  40141b:	89 45 fc             	mov    %eax,-0x4(%rbp)
  40141e:	83 7d fc 00          	cmpl   $0x0,-0x4(%rbp)
  401422:	79 16                	jns    40143a <open_clientfd+0x42>
  401424:	48 8d 3d e0 0c 00 00 	lea    0xce0(%rip),%rdi        # 40210b <_IO_stdin_used+0x1cb>
  40142b:	e8 00 f8 ff ff       	callq  400c30 <puts@plt>
  401430:	bf 08 00 00 00       	mov    $0x8,%edi
  401435:	e8 86 f9 ff ff       	callq  400dc0 <exit@plt>
  40143a:	48 8b 45 d8          	mov    -0x28(%rbp),%rax
  40143e:	48 89 c7             	mov    %rax,%rdi
  401441:	e8 ca f8 ff ff       	callq  400d10 <gethostbyname@plt>
  401446:	48 89 45 f0          	mov    %rax,-0x10(%rbp)
  40144a:	48 83 7d f0 00       	cmpq   $0x0,-0x10(%rbp)
  40144f:	75 16                	jne    401467 <open_clientfd+0x6f>
  401451:	48 8d 3d c1 0c 00 00 	lea    0xcc1(%rip),%rdi        # 402119 <_IO_stdin_used+0x1d9>
  401458:	e8 d3 f7 ff ff       	callq  400c30 <puts@plt>
  40145d:	bf 08 00 00 00       	mov    $0x8,%edi
  401462:	e8 59 f9 ff ff       	callq  400dc0 <exit@plt>
  401467:	48 8d 45 e0          	lea    -0x20(%rbp),%rax
  40146b:	be 10 00 00 00       	mov    $0x10,%esi
  401470:	48 89 c7             	mov    %rax,%rdi
  401473:	e8 18 f9 ff ff       	callq  400d90 <bzero@plt>
  401478:	66 c7 45 e0 02 00    	movw   $0x2,-0x20(%rbp)
  40147e:	48 8b 45 f0          	mov    -0x10(%rbp),%rax
  401482:	8b 40 14             	mov    0x14(%rax),%eax
  401485:	48 63 d0             	movslq %eax,%rdx
  401488:	48 8b 45 f0          	mov    -0x10(%rbp),%rax
  40148c:	48 8b 40 18          	mov    0x18(%rax),%rax
  401490:	48 8b 00             	mov    (%rax),%rax
  401493:	48 8d 4d e0          	lea    -0x20(%rbp),%rcx
  401497:	48 83 c1 04          	add    $0x4,%rcx
  40149b:	48 89 ce             	mov    %rcx,%rsi
  40149e:	48 89 c7             	mov    %rax,%rdi
  4014a1:	e8 ba f8 ff ff       	callq  400d60 <bcopy@plt>
  4014a6:	8b 45 d4             	mov    -0x2c(%rbp),%eax
  4014a9:	0f b7 c0             	movzwl %ax,%eax
  4014ac:	89 c7                	mov    %eax,%edi
  4014ae:	e8 cd f7 ff ff       	callq  400c80 <htons@plt>
  4014b3:	66 89 45 e2          	mov    %ax,-0x1e(%rbp)
  4014b7:	48 8d 4d e0          	lea    -0x20(%rbp),%rcx
  4014bb:	8b 45 fc             	mov    -0x4(%rbp),%eax
  4014be:	ba 10 00 00 00       	mov    $0x10,%edx
  4014c3:	48 89 ce             	mov    %rcx,%rsi
  4014c6:	89 c7                	mov    %eax,%edi
  4014c8:	e8 03 f9 ff ff       	callq  400dd0 <connect@plt>
  4014cd:	85 c0                	test   %eax,%eax
  4014cf:	79 16                	jns    4014e7 <open_clientfd+0xef>
  4014d1:	48 8d 3d 4f 0c 00 00 	lea    0xc4f(%rip),%rdi        # 402127 <_IO_stdin_used+0x1e7>
  4014d8:	e8 53 f7 ff ff       	callq  400c30 <puts@plt>
  4014dd:	bf 08 00 00 00       	mov    $0x8,%edi
  4014e2:	e8 d9 f8 ff ff       	callq  400dc0 <exit@plt>
  4014e7:	8b 45 fc             	mov    -0x4(%rbp),%eax
  4014ea:	c9                   	leaveq 
  4014eb:	c3                   	retq   

00000000004014ec <initialize_bomb>:
  4014ec:	55                   	push   %rbp
  4014ed:	48 89 e5             	mov    %rsp,%rbp
  4014f0:	48 8d 35 53 fd ff ff 	lea    -0x2ad(%rip),%rsi        # 40124a <sig_handler>
  4014f7:	bf 02 00 00 00       	mov    $0x2,%edi
  4014fc:	e8 ff f7 ff ff       	callq  400d00 <signal@plt>
  401501:	be 50 00 00 00       	mov    $0x50,%esi
  401506:	48 8d 3d 28 0c 00 00 	lea    0xc28(%rip),%rdi        # 402135 <_IO_stdin_used+0x1f5>
  40150d:	e8 e6 fe ff ff       	callq  4013f8 <open_clientfd>
  401512:	89 c7                	mov    %eax,%edi
  401514:	e8 a7 f7 ff ff       	callq  400cc0 <close@plt>
  401519:	90                   	nop
  40151a:	5d                   	pop    %rbp
  40151b:	c3                   	retq   

000000000040151c <blank_line>:
  40151c:	55                   	push   %rbp
  40151d:	48 89 e5             	mov    %rsp,%rbp
  401520:	48 83 ec 10          	sub    $0x10,%rsp
  401524:	48 89 7d f8          	mov    %rdi,-0x8(%rbp)
  401528:	eb 37                	jmp    401561 <blank_line+0x45>
  40152a:	e8 d1 f8 ff ff       	callq  400e00 <__ctype_b_loc@plt>
  40152f:	48 8b 08             	mov    (%rax),%rcx
  401532:	48 8b 45 f8          	mov    -0x8(%rbp),%rax
  401536:	48 8d 50 01          	lea    0x1(%rax),%rdx
  40153a:	48 89 55 f8          	mov    %rdx,-0x8(%rbp)
  40153e:	0f b6 00             	movzbl (%rax),%eax
  401541:	48 0f be c0          	movsbq %al,%rax
  401545:	48 01 c0             	add    %rax,%rax
  401548:	48 01 c8             	add    %rcx,%rax
  40154b:	0f b7 00             	movzwl (%rax),%eax
  40154e:	0f b7 c0             	movzwl %ax,%eax
  401551:	25 00 20 00 00       	and    $0x2000,%eax
  401556:	85 c0                	test   %eax,%eax
  401558:	75 07                	jne    401561 <blank_line+0x45>
  40155a:	b8 00 00 00 00       	mov    $0x0,%eax
  40155f:	eb 10                	jmp    401571 <blank_line+0x55>
  401561:	48 8b 45 f8          	mov    -0x8(%rbp),%rax
  401565:	0f b6 00             	movzbl (%rax),%eax
  401568:	84 c0                	test   %al,%al
  40156a:	75 be                	jne    40152a <blank_line+0xe>
  40156c:	b8 01 00 00 00       	mov    $0x1,%eax
  401571:	c9                   	leaveq 
  401572:	c3                   	retq   

0000000000401573 <skip>:
  401573:	55                   	push   %rbp
  401574:	48 89 e5             	mov    %rsp,%rbp
  401577:	48 83 ec 10          	sub    $0x10,%rsp
  40157b:	48 8b 0d 3e 20 20 00 	mov    0x20203e(%rip),%rcx        # 6035c0 <infile>
  401582:	8b 05 34 20 20 00    	mov    0x202034(%rip),%eax        # 6035bc <num_input_strings>
  401588:	48 63 d0             	movslq %eax,%rdx
  40158b:	48 89 d0             	mov    %rdx,%rax
  40158e:	48 c1 e0 02          	shl    $0x2,%rax
  401592:	48 01 d0             	add    %rdx,%rax
  401595:	48 c1 e0 04          	shl    $0x4,%rax
  401599:	48 8d 15 40 20 20 00 	lea    0x202040(%rip),%rdx        # 6035e0 <input_strings>
  4015a0:	48 01 d0             	add    %rdx,%rax
  4015a3:	48 89 ca             	mov    %rcx,%rdx
  4015a6:	be 50 00 00 00       	mov    $0x50,%esi
  4015ab:	48 89 c7             	mov    %rax,%rdi
  4015ae:	e8 2d f7 ff ff       	callq  400ce0 <fgets@plt>
  4015b3:	48 89 45 f8          	mov    %rax,-0x8(%rbp)
  4015b7:	48 83 7d f8 00       	cmpq   $0x0,-0x8(%rbp)
  4015bc:	74 10                	je     4015ce <skip+0x5b>
  4015be:	48 8b 45 f8          	mov    -0x8(%rbp),%rax
  4015c2:	48 89 c7             	mov    %rax,%rdi
  4015c5:	e8 52 ff ff ff       	callq  40151c <blank_line>
  4015ca:	85 c0                	test   %eax,%eax
  4015cc:	75 ad                	jne    40157b <skip+0x8>
  4015ce:	48 8b 45 f8          	mov    -0x8(%rbp),%rax
  4015d2:	c9                   	leaveq 
  4015d3:	c3                   	retq   

00000000004015d4 <read_line>:
  4015d4:	55                   	push   %rbp
  4015d5:	48 89 e5             	mov    %rsp,%rbp
  4015d8:	48 83 ec 10          	sub    $0x10,%rsp
  4015dc:	b8 00 00 00 00       	mov    $0x0,%eax
  4015e1:	e8 8d ff ff ff       	callq  401573 <skip>
  4015e6:	48 89 45 f8          	mov    %rax,-0x8(%rbp)
  4015ea:	48 83 7d f8 00       	cmpq   $0x0,-0x8(%rbp)
  4015ef:	75 75                	jne    401666 <read_line+0x92>
  4015f1:	48 8b 15 c8 1f 20 00 	mov    0x201fc8(%rip),%rdx        # 6035c0 <infile>
  4015f8:	48 8b 05 b1 1f 20 00 	mov    0x201fb1(%rip),%rax        # 6035b0 <stdin@@GLIBC_2.2.5>
  4015ff:	48 39 c2             	cmp    %rax,%rdx
  401602:	75 13                	jne    401617 <read_line+0x43>
  401604:	48 8d 3d 38 0b 00 00 	lea    0xb38(%rip),%rdi        # 402143 <_IO_stdin_used+0x203>
  40160b:	e8 20 f6 ff ff       	callq  400c30 <puts@plt>
  401610:	e8 9a 07 00 00       	callq  401daf <explode_bomb>
  401615:	eb 4f                	jmp    401666 <read_line+0x92>
  401617:	48 8d 3d 43 0b 00 00 	lea    0xb43(%rip),%rdi        # 402161 <_IO_stdin_used+0x221>
  40161e:	e8 dd f5 ff ff       	callq  400c00 <getenv@plt>
  401623:	48 85 c0             	test   %rax,%rax
  401626:	74 0a                	je     401632 <read_line+0x5e>
  401628:	bf 00 00 00 00       	mov    $0x0,%edi
  40162d:	e8 8e f7 ff ff       	callq  400dc0 <exit@plt>
  401632:	48 8b 05 77 1f 20 00 	mov    0x201f77(%rip),%rax        # 6035b0 <stdin@@GLIBC_2.2.5>
  401639:	48 89 05 80 1f 20 00 	mov    %rax,0x201f80(%rip)        # 6035c0 <infile>
  401640:	b8 00 00 00 00       	mov    $0x0,%eax
  401645:	e8 29 ff ff ff       	callq  401573 <skip>
  40164a:	48 89 45 f8          	mov    %rax,-0x8(%rbp)
  40164e:	48 83 7d f8 00       	cmpq   $0x0,-0x8(%rbp)
  401653:	75 11                	jne    401666 <read_line+0x92>
  401655:	48 8d 3d e7 0a 00 00 	lea    0xae7(%rip),%rdi        # 402143 <_IO_stdin_used+0x203>
  40165c:	e8 cf f5 ff ff       	callq  400c30 <puts@plt>
  401661:	e8 49 07 00 00       	callq  401daf <explode_bomb>
  401666:	8b 05 50 1f 20 00    	mov    0x201f50(%rip),%eax        # 6035bc <num_input_strings>
  40166c:	48 63 d0             	movslq %eax,%rdx
  40166f:	48 89 d0             	mov    %rdx,%rax
  401672:	48 c1 e0 02          	shl    $0x2,%rax
  401676:	48 01 d0             	add    %rdx,%rax
  401679:	48 c1 e0 04          	shl    $0x4,%rax
  40167d:	48 8d 15 5c 1f 20 00 	lea    0x201f5c(%rip),%rdx        # 6035e0 <input_strings>
  401684:	48 01 d0             	add    %rdx,%rax
  401687:	48 89 c7             	mov    %rax,%rdi
  40168a:	e8 d1 f5 ff ff       	callq  400c60 <strlen@plt>
  40168f:	89 45 f4             	mov    %eax,-0xc(%rbp)
  401692:	83 7d f4 4f          	cmpl   $0x4f,-0xc(%rbp)
  401696:	75 11                	jne    4016a9 <read_line+0xd5>
  401698:	48 8d 3d cd 0a 00 00 	lea    0xacd(%rip),%rdi        # 40216c <_IO_stdin_used+0x22c>
  40169f:	e8 8c f5 ff ff       	callq  400c30 <puts@plt>
  4016a4:	e8 06 07 00 00       	callq  401daf <explode_bomb>
  4016a9:	8b 05 0d 1f 20 00    	mov    0x201f0d(%rip),%eax        # 6035bc <num_input_strings>
  4016af:	8b 55 f4             	mov    -0xc(%rbp),%edx
  4016b2:	83 ea 01             	sub    $0x1,%edx
  4016b5:	48 63 ca             	movslq %edx,%rcx
  4016b8:	48 63 d0             	movslq %eax,%rdx
  4016bb:	48 89 d0             	mov    %rdx,%rax
  4016be:	48 c1 e0 02          	shl    $0x2,%rax
  4016c2:	48 01 d0             	add    %rdx,%rax
  4016c5:	48 c1 e0 04          	shl    $0x4,%rax
  4016c9:	48 8d 14 08          	lea    (%rax,%rcx,1),%rdx
  4016cd:	48 8d 05 0c 1f 20 00 	lea    0x201f0c(%rip),%rax        # 6035e0 <input_strings>
  4016d4:	48 01 d0             	add    %rdx,%rax
  4016d7:	c6 00 00             	movb   $0x0,(%rax)
  4016da:	8b 05 dc 1e 20 00    	mov    0x201edc(%rip),%eax        # 6035bc <num_input_strings>
  4016e0:	8d 50 01             	lea    0x1(%rax),%edx
  4016e3:	89 15 d3 1e 20 00    	mov    %edx,0x201ed3(%rip)        # 6035bc <num_input_strings>
  4016e9:	48 63 d0             	movslq %eax,%rdx
  4016ec:	48 89 d0             	mov    %rdx,%rax
  4016ef:	48 c1 e0 02          	shl    $0x2,%rax
  4016f3:	48 01 d0             	add    %rdx,%rax
  4016f6:	48 c1 e0 04          	shl    $0x4,%rax
  4016fa:	48 8d 15 df 1e 20 00 	lea    0x201edf(%rip),%rdx        # 6035e0 <input_strings>
  401701:	48 01 d0             	add    %rdx,%rax
  401704:	c9                   	leaveq 
  401705:	c3                   	retq   

0000000000401706 <writen>:
  401706:	55                   	push   %rbp
  401707:	48 89 e5             	mov    %rsp,%rbp
  40170a:	48 83 ec 40          	sub    $0x40,%rsp
  40170e:	89 7d dc             	mov    %edi,-0x24(%rbp)
  401711:	48 89 75 d0          	mov    %rsi,-0x30(%rbp)
  401715:	48 89 55 c8          	mov    %rdx,-0x38(%rbp)
  401719:	48 8b 45 d0          	mov    -0x30(%rbp),%rax
  40171d:	48 89 45 e8          	mov    %rax,-0x18(%rbp)
  401721:	48 8b 45 c8          	mov    -0x38(%rbp),%rax
  401725:	48 89 45 f8          	mov    %rax,-0x8(%rbp)
  401729:	eb 4f                	jmp    40177a <writen+0x74>
  40172b:	48 8b 55 f8          	mov    -0x8(%rbp),%rdx
  40172f:	48 8b 4d e8          	mov    -0x18(%rbp),%rcx
  401733:	8b 45 dc             	mov    -0x24(%rbp),%eax
  401736:	48 89 ce             	mov    %rcx,%rsi
  401739:	89 c7                	mov    %eax,%edi
  40173b:	e8 00 f5 ff ff       	callq  400c40 <write@plt>
  401740:	48 89 45 f0          	mov    %rax,-0x10(%rbp)
  401744:	48 83 7d f0 00       	cmpq   $0x0,-0x10(%rbp)
  401749:	7f 1f                	jg     40176a <writen+0x64>
  40174b:	e8 c0 f4 ff ff       	callq  400c10 <__errno_location@plt>
  401750:	8b 00                	mov    (%rax),%eax
  401752:	83 f8 04             	cmp    $0x4,%eax
  401755:	75 0a                	jne    401761 <writen+0x5b>
  401757:	48 c7 45 f0 00 00 00 	movq   $0x0,-0x10(%rbp)
  40175e:	00 
  40175f:	eb 09                	jmp    40176a <writen+0x64>
  401761:	48 c7 c0 ff ff ff ff 	mov    $0xffffffffffffffff,%rax
  401768:	eb 1b                	jmp    401785 <writen+0x7f>
  40176a:	48 8b 45 f0          	mov    -0x10(%rbp),%rax
  40176e:	48 29 45 f8          	sub    %rax,-0x8(%rbp)
  401772:	48 8b 45 f0          	mov    -0x10(%rbp),%rax
  401776:	48 01 45 e8          	add    %rax,-0x18(%rbp)
  40177a:	48 83 7d f8 00       	cmpq   $0x0,-0x8(%rbp)
  40177f:	75 aa                	jne    40172b <writen+0x25>
  401781:	48 8b 45 c8          	mov    -0x38(%rbp),%rax
  401785:	c9                   	leaveq 
  401786:	c3                   	retq   

0000000000401787 <send_msg>:
  401787:	55                   	push   %rbp
  401788:	48 89 e5             	mov    %rsp,%rbp
  40178b:	53                   	push   %rbx
  40178c:	48 81 ec 88 24 00 00 	sub    $0x2488,%rsp
  401793:	89 bd 7c db ff ff    	mov    %edi,-0x2484(%rbp)
  401799:	c7 45 e8 00 00 00 00 	movl   $0x0,-0x18(%rbp)
  4017a0:	ba 00 00 00 00       	mov    $0x0,%edx
  4017a5:	be 01 00 00 00       	mov    $0x1,%esi
  4017aa:	bf 02 00 00 00       	mov    $0x2,%edi
  4017af:	e8 5c f6 ff ff       	callq  400e10 <socket@plt>
  4017b4:	89 45 e8             	mov    %eax,-0x18(%rbp)
  4017b7:	83 7d e8 00          	cmpl   $0x0,-0x18(%rbp)
  4017bb:	79 3c                	jns    4017f9 <send_msg+0x72>
  4017bd:	48 8b 05 dc 1d 20 00 	mov    0x201ddc(%rip),%rax        # 6035a0 <stdout@@GLIBC_2.2.5>
  4017c4:	48 8d 15 bc 09 00 00 	lea    0x9bc(%rip),%rdx        # 402187 <_IO_stdin_used+0x247>
  4017cb:	48 8d 35 c2 09 00 00 	lea    0x9c2(%rip),%rsi        # 402194 <_IO_stdin_used+0x254>
  4017d2:	48 89 c7             	mov    %rax,%rdi
  4017d5:	b8 00 00 00 00       	mov    $0x0,%eax
  4017da:	e8 41 f5 ff ff       	callq  400d20 <fprintf@plt>
  4017df:	83 7d e8 00          	cmpl   $0x0,-0x18(%rbp)
  4017e3:	74 0a                	je     4017ef <send_msg+0x68>
  4017e5:	8b 45 e8             	mov    -0x18(%rbp),%eax
  4017e8:	89 c7                	mov    %eax,%edi
  4017ea:	e8 d1 f4 ff ff       	callq  400cc0 <close@plt>
  4017ef:	bf 01 00 00 00       	mov    $0x1,%edi
  4017f4:	e8 c7 f5 ff ff       	callq  400dc0 <exit@plt>
  4017f9:	48 8d 45 d0          	lea    -0x30(%rbp),%rax
  4017fd:	be 10 00 00 00       	mov    $0x10,%esi
  401802:	48 89 c7             	mov    %rax,%rdi
  401805:	e8 86 f5 ff ff       	callq  400d90 <bzero@plt>
  40180a:	66 c7 45 d0 02 00    	movw   $0x2,-0x30(%rbp)
  401810:	bf 62 cc 00 00       	mov    $0xcc62,%edi
  401815:	e8 66 f4 ff ff       	callq  400c80 <htons@plt>
  40181a:	66 89 45 d2          	mov    %ax,-0x2e(%rbp)
  40181e:	48 8d 45 d0          	lea    -0x30(%rbp),%rax
  401822:	48 83 c0 04          	add    $0x4,%rax
  401826:	48 89 c2             	mov    %rax,%rdx
  401829:	48 8d 35 05 09 00 00 	lea    0x905(%rip),%rsi        # 402135 <_IO_stdin_used+0x1f5>
  401830:	bf 02 00 00 00       	mov    $0x2,%edi
  401835:	b8 00 00 00 00       	mov    $0x0,%eax
  40183a:	e8 f1 f4 ff ff       	callq  400d30 <inet_pton@plt>
  40183f:	85 c0                	test   %eax,%eax
  401841:	79 3c                	jns    40187f <send_msg+0xf8>
  401843:	48 8b 05 56 1d 20 00 	mov    0x201d56(%rip),%rax        # 6035a0 <stdout@@GLIBC_2.2.5>
  40184a:	48 8d 15 47 09 00 00 	lea    0x947(%rip),%rdx        # 402198 <_IO_stdin_used+0x258>
  401851:	48 8d 35 3c 09 00 00 	lea    0x93c(%rip),%rsi        # 402194 <_IO_stdin_used+0x254>
  401858:	48 89 c7             	mov    %rax,%rdi
  40185b:	b8 00 00 00 00       	mov    $0x0,%eax
  401860:	e8 bb f4 ff ff       	callq  400d20 <fprintf@plt>
  401865:	83 7d e8 00          	cmpl   $0x0,-0x18(%rbp)
  401869:	74 0a                	je     401875 <send_msg+0xee>
  40186b:	8b 45 e8             	mov    -0x18(%rbp),%eax
  40186e:	89 c7                	mov    %eax,%edi
  401870:	e8 4b f4 ff ff       	callq  400cc0 <close@plt>
  401875:	bf 01 00 00 00       	mov    $0x1,%edi
  40187a:	e8 41 f5 ff ff       	callq  400dc0 <exit@plt>
  40187f:	48 8d 4d d0          	lea    -0x30(%rbp),%rcx
  401883:	8b 45 e8             	mov    -0x18(%rbp),%eax
  401886:	ba 10 00 00 00       	mov    $0x10,%edx
  40188b:	48 89 ce             	mov    %rcx,%rsi
  40188e:	89 c7                	mov    %eax,%edi
  401890:	e8 3b f5 ff ff       	callq  400dd0 <connect@plt>
  401895:	85 c0                	test   %eax,%eax
  401897:	79 3c                	jns    4018d5 <send_msg+0x14e>
  401899:	48 8b 05 00 1d 20 00 	mov    0x201d00(%rip),%rax        # 6035a0 <stdout@@GLIBC_2.2.5>
  4018a0:	48 8d 15 f7 08 00 00 	lea    0x8f7(%rip),%rdx        # 40219e <_IO_stdin_used+0x25e>
  4018a7:	48 8d 35 e6 08 00 00 	lea    0x8e6(%rip),%rsi        # 402194 <_IO_stdin_used+0x254>
  4018ae:	48 89 c7             	mov    %rax,%rdi
  4018b1:	b8 00 00 00 00       	mov    $0x0,%eax
  4018b6:	e8 65 f4 ff ff       	callq  400d20 <fprintf@plt>
  4018bb:	83 7d e8 00          	cmpl   $0x0,-0x18(%rbp)
  4018bf:	74 0a                	je     4018cb <send_msg+0x144>
  4018c1:	8b 45 e8             	mov    -0x18(%rbp),%eax
  4018c4:	89 c7                	mov    %eax,%edi
  4018c6:	e8 f5 f3 ff ff       	callq  400cc0 <close@plt>
  4018cb:	bf 01 00 00 00       	mov    $0x1,%edi
  4018d0:	e8 eb f4 ff ff       	callq  400dc0 <exit@plt>
  4018d5:	48 8d 85 d0 db ff ff 	lea    -0x2430(%rbp),%rax
  4018dc:	48 bb 53 75 62 6a 65 	movabs $0x3a7463656a627553,%rbx
  4018e3:	63 74 3a 
  4018e6:	48 89 18             	mov    %rbx,(%rax)
  4018e9:	48 bb 20 42 6f 6d 62 	movabs $0x6f6e20626d6f4220,%rbx
  4018f0:	20 6e 6f 
  4018f3:	48 89 58 08          	mov    %rbx,0x8(%rax)
  4018f7:	48 bb 74 69 66 69 63 	movabs $0x6974616369666974,%rbx
  4018fe:	61 74 69 
  401901:	48 89 58 10          	mov    %rbx,0x10(%rax)
  401905:	c7 40 18 6f 6e 0a 00 	movl   $0xa6e6f,0x18(%rax)
  40190c:	48 8d 95 d0 db ff ff 	lea    -0x2430(%rbp),%rdx
  401913:	48 8d 85 d0 df ff ff 	lea    -0x2030(%rbp),%rax
  40191a:	48 89 d6             	mov    %rdx,%rsi
  40191d:	48 89 c7             	mov    %rax,%rdi
  401920:	e8 7b f4 ff ff       	callq  400da0 <strcat@plt>
  401925:	48 8d 85 d0 db ff ff 	lea    -0x2430(%rbp),%rax
  40192c:	66 c7 00 0a 00       	movw   $0xa,(%rax)
  401931:	48 8d 95 d0 db ff ff 	lea    -0x2430(%rbp),%rdx
  401938:	48 8d 85 d0 df ff ff 	lea    -0x2030(%rbp),%rax
  40193f:	48 89 d6             	mov    %rdx,%rsi
  401942:	48 89 c7             	mov    %rax,%rdi
  401945:	e8 56 f4 ff ff       	callq  400da0 <strcat@plt>
  40194a:	bf 00 00 00 00       	mov    $0x0,%edi
  40194f:	e8 1c f4 ff ff       	callq  400d70 <cuserid@plt>
  401954:	48 89 45 e0          	mov    %rax,-0x20(%rbp)
  401958:	48 83 7d e0 00       	cmpq   $0x0,-0x20(%rbp)
  40195d:	75 19                	jne    401978 <send_msg+0x1f1>
  40195f:	48 8d 85 80 db ff ff 	lea    -0x2480(%rbp),%rax
  401966:	c7 00 6e 6f 62 6f    	movl   $0x6f626f6e,(%rax)
  40196c:	66 c7 40 04 64 79    	movw   $0x7964,0x4(%rax)
  401972:	c6 40 06 00          	movb   $0x0,0x6(%rax)
  401976:	eb 16                	jmp    40198e <send_msg+0x207>
  401978:	48 8b 55 e0          	mov    -0x20(%rbp),%rdx
  40197c:	48 8d 85 80 db ff ff 	lea    -0x2480(%rbp),%rax
  401983:	48 89 d6             	mov    %rdx,%rsi
  401986:	48 89 c7             	mov    %rax,%rdi
  401989:	e8 92 f2 ff ff       	callq  400c20 <strcpy@plt>
  40198e:	8b 0d 28 1c 20 00    	mov    0x201c28(%rip),%ecx        # 6035bc <num_input_strings>
  401994:	83 bd 7c db ff ff 00 	cmpl   $0x0,-0x2484(%rbp)
  40199b:	74 09                	je     4019a6 <send_msg+0x21f>
  40199d:	48 8d 05 08 08 00 00 	lea    0x808(%rip),%rax        # 4021ac <_IO_stdin_used+0x26c>
  4019a4:	eb 07                	jmp    4019ad <send_msg+0x226>
  4019a6:	48 8d 05 07 08 00 00 	lea    0x807(%rip),%rax        # 4021b4 <_IO_stdin_used+0x274>
  4019ad:	8b 15 ad 17 20 00    	mov    0x2017ad(%rip),%edx        # 603160 <bomb_id>
  4019b3:	48 8d b5 80 db ff ff 	lea    -0x2480(%rbp),%rsi
  4019ba:	48 8d bd d0 db ff ff 	lea    -0x2430(%rbp),%rdi
  4019c1:	48 83 ec 08          	sub    $0x8,%rsp
  4019c5:	51                   	push   %rcx
  4019c6:	49 89 c1             	mov    %rax,%r9
  4019c9:	49 89 f0             	mov    %rsi,%r8
  4019cc:	89 d1                	mov    %edx,%ecx
  4019ce:	48 8d 15 ab 17 20 00 	lea    0x2017ab(%rip),%rdx        # 603180 <lab_id>
  4019d5:	48 8d 35 e1 07 00 00 	lea    0x7e1(%rip),%rsi        # 4021bd <_IO_stdin_used+0x27d>
  4019dc:	b8 00 00 00 00       	mov    $0x0,%eax
  4019e1:	e8 ca f3 ff ff       	callq  400db0 <sprintf@plt>
  4019e6:	48 83 c4 10          	add    $0x10,%rsp
  4019ea:	48 8d 95 d0 db ff ff 	lea    -0x2430(%rbp),%rdx
  4019f1:	48 8d 85 d0 df ff ff 	lea    -0x2030(%rbp),%rax
  4019f8:	48 89 d6             	mov    %rdx,%rsi
  4019fb:	48 89 c7             	mov    %rax,%rdi
  4019fe:	e8 9d f3 ff ff       	callq  400da0 <strcat@plt>
  401a03:	c7 45 ec 00 00 00 00 	movl   $0x0,-0x14(%rbp)
  401a0a:	e9 82 00 00 00       	jmpq   401a91 <send_msg+0x30a>
  401a0f:	8b 45 ec             	mov    -0x14(%rbp),%eax
  401a12:	48 63 d0             	movslq %eax,%rdx
  401a15:	48 89 d0             	mov    %rdx,%rax
  401a18:	48 c1 e0 02          	shl    $0x2,%rax
  401a1c:	48 01 d0             	add    %rdx,%rax
  401a1f:	48 c1 e0 04          	shl    $0x4,%rax
  401a23:	48 8d 15 b6 1b 20 00 	lea    0x201bb6(%rip),%rdx        # 6035e0 <input_strings>
  401a2a:	48 8d 34 10          	lea    (%rax,%rdx,1),%rsi
  401a2e:	8b 45 ec             	mov    -0x14(%rbp),%eax
  401a31:	8d 78 01             	lea    0x1(%rax),%edi
  401a34:	8b 15 26 17 20 00    	mov    0x201726(%rip),%edx        # 603160 <bomb_id>
  401a3a:	48 8d 8d 80 db ff ff 	lea    -0x2480(%rbp),%rcx
  401a41:	48 8d 85 d0 db ff ff 	lea    -0x2430(%rbp),%rax
  401a48:	48 83 ec 08          	sub    $0x8,%rsp
  401a4c:	56                   	push   %rsi
  401a4d:	41 89 f9             	mov    %edi,%r9d
  401a50:	49 89 c8             	mov    %rcx,%r8
  401a53:	89 d1                	mov    %edx,%ecx
  401a55:	48 8d 15 24 17 20 00 	lea    0x201724(%rip),%rdx        # 603180 <lab_id>
  401a5c:	48 8d 35 76 07 00 00 	lea    0x776(%rip),%rsi        # 4021d9 <_IO_stdin_used+0x299>
  401a63:	48 89 c7             	mov    %rax,%rdi
  401a66:	b8 00 00 00 00       	mov    $0x0,%eax
  401a6b:	e8 40 f3 ff ff       	callq  400db0 <sprintf@plt>
  401a70:	48 83 c4 10          	add    $0x10,%rsp
  401a74:	48 8d 95 d0 db ff ff 	lea    -0x2430(%rbp),%rdx
  401a7b:	48 8d 85 d0 df ff ff 	lea    -0x2030(%rbp),%rax
  401a82:	48 89 d6             	mov    %rdx,%rsi
  401a85:	48 89 c7             	mov    %rax,%rdi
  401a88:	e8 13 f3 ff ff       	callq  400da0 <strcat@plt>
  401a8d:	83 45 ec 01          	addl   $0x1,-0x14(%rbp)
  401a91:	8b 05 25 1b 20 00    	mov    0x201b25(%rip),%eax        # 6035bc <num_input_strings>
  401a97:	39 45 ec             	cmp    %eax,-0x14(%rbp)
  401a9a:	0f 8c 6f ff ff ff    	jl     401a0f <send_msg+0x288>
  401aa0:	48 8d 85 d0 df ff ff 	lea    -0x2030(%rbp),%rax
  401aa7:	48 89 c7             	mov    %rax,%rdi
  401aaa:	e8 b1 f1 ff ff       	callq  400c60 <strlen@plt>
  401aaf:	48 89 c2             	mov    %rax,%rdx
  401ab2:	48 8d 8d d0 df ff ff 	lea    -0x2030(%rbp),%rcx
  401ab9:	8b 45 e8             	mov    -0x18(%rbp),%eax
  401abc:	48 89 ce             	mov    %rcx,%rsi
  401abf:	89 c7                	mov    %eax,%edi
  401ac1:	e8 40 fc ff ff       	callq  401706 <writen>
  401ac6:	48 89 c3             	mov    %rax,%rbx
  401ac9:	48 8d 85 d0 df ff ff 	lea    -0x2030(%rbp),%rax
  401ad0:	48 89 c7             	mov    %rax,%rdi
  401ad3:	e8 88 f1 ff ff       	callq  400c60 <strlen@plt>
  401ad8:	48 39 c3             	cmp    %rax,%rbx
  401adb:	73 3c                	jae    401b19 <send_msg+0x392>
  401add:	48 8b 05 bc 1a 20 00 	mov    0x201abc(%rip),%rax        # 6035a0 <stdout@@GLIBC_2.2.5>
  401ae4:	48 8d 15 0a 07 00 00 	lea    0x70a(%rip),%rdx        # 4021f5 <_IO_stdin_used+0x2b5>
  401aeb:	48 8d 35 a2 06 00 00 	lea    0x6a2(%rip),%rsi        # 402194 <_IO_stdin_used+0x254>
  401af2:	48 89 c7             	mov    %rax,%rdi
  401af5:	b8 00 00 00 00       	mov    $0x0,%eax
  401afa:	e8 21 f2 ff ff       	callq  400d20 <fprintf@plt>
  401aff:	83 7d e8 00          	cmpl   $0x0,-0x18(%rbp)
  401b03:	74 0a                	je     401b0f <send_msg+0x388>
  401b05:	8b 45 e8             	mov    -0x18(%rbp),%eax
  401b08:	89 c7                	mov    %eax,%edi
  401b0a:	e8 b1 f1 ff ff       	callq  400cc0 <close@plt>
  401b0f:	bf 01 00 00 00       	mov    $0x1,%edi
  401b14:	e8 a7 f2 ff ff       	callq  400dc0 <exit@plt>
  401b19:	8b 45 e8             	mov    -0x18(%rbp),%eax
  401b1c:	89 c7                	mov    %eax,%edi
  401b1e:	e8 9d f1 ff ff       	callq  400cc0 <close@plt>
  401b23:	90                   	nop
  401b24:	48 8b 5d f8          	mov    -0x8(%rbp),%rbx
  401b28:	c9                   	leaveq 
  401b29:	c3                   	retq   

0000000000401b2a <send_msg_2>:
  401b2a:	55                   	push   %rbp
  401b2b:	48 89 e5             	mov    %rsp,%rbp
  401b2e:	48 83 c4 80          	add    $0xffffffffffffff80,%rsp
  401b32:	89 7d 8c             	mov    %edi,-0x74(%rbp)
  401b35:	bf 00 00 00 00       	mov    $0x0,%edi
  401b3a:	e8 71 f1 ff ff       	callq  400cb0 <dup@plt>
  401b3f:	89 45 f8             	mov    %eax,-0x8(%rbp)
  401b42:	83 7d f8 ff          	cmpl   $0xffffffff,-0x8(%rbp)
  401b46:	75 16                	jne    401b5e <send_msg_2+0x34>
  401b48:	48 8d 3d b9 06 00 00 	lea    0x6b9(%rip),%rdi        # 402208 <_IO_stdin_used+0x2c8>
  401b4f:	e8 dc f0 ff ff       	callq  400c30 <puts@plt>
  401b54:	bf 08 00 00 00       	mov    $0x8,%edi
  401b59:	e8 62 f2 ff ff       	callq  400dc0 <exit@plt>
  401b5e:	bf 00 00 00 00       	mov    $0x0,%edi
  401b63:	e8 58 f1 ff ff       	callq  400cc0 <close@plt>
  401b68:	83 f8 ff             	cmp    $0xffffffff,%eax
  401b6b:	75 16                	jne    401b83 <send_msg_2+0x59>
  401b6d:	48 8d 3d a8 06 00 00 	lea    0x6a8(%rip),%rdi        # 40221c <_IO_stdin_used+0x2dc>
  401b74:	e8 b7 f0 ff ff       	callq  400c30 <puts@plt>
  401b79:	bf 08 00 00 00       	mov    $0x8,%edi
  401b7e:	e8 3d f2 ff ff       	callq  400dc0 <exit@plt>
  401b83:	e8 68 f1 ff ff       	callq  400cf0 <tmpfile@plt>
  401b88:	48 89 45 f0          	mov    %rax,-0x10(%rbp)
  401b8c:	48 83 7d f0 00       	cmpq   $0x0,-0x10(%rbp)
  401b91:	75 16                	jne    401ba9 <send_msg_2+0x7f>
  401b93:	48 8d 3d 95 06 00 00 	lea    0x695(%rip),%rdi        # 40222f <_IO_stdin_used+0x2ef>
  401b9a:	e8 91 f0 ff ff       	callq  400c30 <puts@plt>
  401b9f:	bf 08 00 00 00       	mov    $0x8,%edi
  401ba4:	e8 17 f2 ff ff       	callq  400dc0 <exit@plt>
  401ba9:	48 8b 45 f0          	mov    -0x10(%rbp),%rax
  401bad:	48 89 c1             	mov    %rax,%rcx
  401bb0:	ba 1b 00 00 00       	mov    $0x1b,%edx
  401bb5:	be 01 00 00 00       	mov    $0x1,%esi
  401bba:	48 8d 3d 83 06 00 00 	lea    0x683(%rip),%rdi        # 402244 <_IO_stdin_used+0x304>
  401bc1:	e8 1a f2 ff ff       	callq  400de0 <fwrite@plt>
  401bc6:	48 8b 45 f0          	mov    -0x10(%rbp),%rax
  401bca:	48 89 c6             	mov    %rax,%rsi
  401bcd:	bf 0a 00 00 00       	mov    $0xa,%edi
  401bd2:	e8 f9 f0 ff ff       	callq  400cd0 <fputc@plt>
  401bd7:	bf 00 00 00 00       	mov    $0x0,%edi
  401bdc:	e8 8f f1 ff ff       	callq  400d70 <cuserid@plt>
  401be1:	48 89 45 e8          	mov    %rax,-0x18(%rbp)
  401be5:	48 83 7d e8 00       	cmpq   $0x0,-0x18(%rbp)
  401bea:	75 16                	jne    401c02 <send_msg_2+0xd8>
  401bec:	48 8d 45 90          	lea    -0x70(%rbp),%rax
  401bf0:	c7 00 6e 6f 62 6f    	movl   $0x6f626f6e,(%rax)
  401bf6:	66 c7 40 04 64 79    	movw   $0x7964,0x4(%rax)
  401bfc:	c6 40 06 00          	movb   $0x0,0x6(%rax)
  401c00:	eb 13                	jmp    401c15 <send_msg_2+0xeb>
  401c02:	48 8b 55 e8          	mov    -0x18(%rbp),%rdx
  401c06:	48 8d 45 90          	lea    -0x70(%rbp),%rax
  401c0a:	48 89 d6             	mov    %rdx,%rsi
  401c0d:	48 89 c7             	mov    %rax,%rdi
  401c10:	e8 0b f0 ff ff       	callq  400c20 <strcpy@plt>
  401c15:	8b 0d a1 19 20 00    	mov    0x2019a1(%rip),%ecx        # 6035bc <num_input_strings>
  401c1b:	83 7d 8c 00          	cmpl   $0x0,-0x74(%rbp)
  401c1f:	74 09                	je     401c2a <send_msg_2+0x100>
  401c21:	48 8d 05 84 05 00 00 	lea    0x584(%rip),%rax        # 4021ac <_IO_stdin_used+0x26c>
  401c28:	eb 07                	jmp    401c31 <send_msg_2+0x107>
  401c2a:	48 8d 05 83 05 00 00 	lea    0x583(%rip),%rax        # 4021b4 <_IO_stdin_used+0x274>
  401c31:	8b 15 29 15 20 00    	mov    0x201529(%rip),%edx        # 603160 <bomb_id>
  401c37:	48 8d 75 90          	lea    -0x70(%rbp),%rsi
  401c3b:	48 8b 7d f0          	mov    -0x10(%rbp),%rdi
  401c3f:	48 83 ec 08          	sub    $0x8,%rsp
  401c43:	51                   	push   %rcx
  401c44:	49 89 c1             	mov    %rax,%r9
  401c47:	49 89 f0             	mov    %rsi,%r8
  401c4a:	89 d1                	mov    %edx,%ecx
  401c4c:	48 8d 15 2d 15 20 00 	lea    0x20152d(%rip),%rdx        # 603180 <lab_id>
  401c53:	48 8d 35 63 05 00 00 	lea    0x563(%rip),%rsi        # 4021bd <_IO_stdin_used+0x27d>
  401c5a:	b8 00 00 00 00       	mov    $0x0,%eax
  401c5f:	e8 bc f0 ff ff       	callq  400d20 <fprintf@plt>
  401c64:	48 83 c4 10          	add    $0x10,%rsp
  401c68:	c7 45 fc 00 00 00 00 	movl   $0x0,-0x4(%rbp)
  401c6f:	eb 63                	jmp    401cd4 <send_msg_2+0x1aa>
  401c71:	8b 45 fc             	mov    -0x4(%rbp),%eax
  401c74:	48 63 d0             	movslq %eax,%rdx
  401c77:	48 89 d0             	mov    %rdx,%rax
  401c7a:	48 c1 e0 02          	shl    $0x2,%rax
  401c7e:	48 01 d0             	add    %rdx,%rax
  401c81:	48 c1 e0 04          	shl    $0x4,%rax
  401c85:	48 8d 15 54 19 20 00 	lea    0x201954(%rip),%rdx        # 6035e0 <input_strings>
  401c8c:	48 8d 34 10          	lea    (%rax,%rdx,1),%rsi
  401c90:	8b 45 fc             	mov    -0x4(%rbp),%eax
  401c93:	8d 78 01             	lea    0x1(%rax),%edi
  401c96:	8b 15 c4 14 20 00    	mov    0x2014c4(%rip),%edx        # 603160 <bomb_id>
  401c9c:	48 8d 4d 90          	lea    -0x70(%rbp),%rcx
  401ca0:	48 8b 45 f0          	mov    -0x10(%rbp),%rax
  401ca4:	48 83 ec 08          	sub    $0x8,%rsp
  401ca8:	56                   	push   %rsi
  401ca9:	41 89 f9             	mov    %edi,%r9d
  401cac:	49 89 c8             	mov    %rcx,%r8
  401caf:	89 d1                	mov    %edx,%ecx
  401cb1:	48 8d 15 c8 14 20 00 	lea    0x2014c8(%rip),%rdx        # 603180 <lab_id>
  401cb8:	48 8d 35 1a 05 00 00 	lea    0x51a(%rip),%rsi        # 4021d9 <_IO_stdin_used+0x299>
  401cbf:	48 89 c7             	mov    %rax,%rdi
  401cc2:	b8 00 00 00 00       	mov    $0x0,%eax
  401cc7:	e8 54 f0 ff ff       	callq  400d20 <fprintf@plt>
  401ccc:	48 83 c4 10          	add    $0x10,%rsp
  401cd0:	83 45 fc 01          	addl   $0x1,-0x4(%rbp)
  401cd4:	8b 05 e2 18 20 00    	mov    0x2018e2(%rip),%eax        # 6035bc <num_input_strings>
  401cda:	39 45 fc             	cmp    %eax,-0x4(%rbp)
  401cdd:	7c 92                	jl     401c71 <send_msg_2+0x147>
  401cdf:	48 8b 45 f0          	mov    -0x10(%rbp),%rax
  401ce3:	48 89 c7             	mov    %rax,%rdi
  401ce6:	e8 b5 ef ff ff       	callq  400ca0 <rewind@plt>
  401ceb:	4c 8d 05 6e 05 00 00 	lea    0x56e(%rip),%r8        # 402260 <_IO_stdin_used+0x320>
  401cf2:	48 8d 0d 71 05 00 00 	lea    0x571(%rip),%rcx        # 40226a <_IO_stdin_used+0x32a>
  401cf9:	48 8d 15 75 05 00 00 	lea    0x575(%rip),%rdx        # 402275 <_IO_stdin_used+0x335>
  401d00:	48 8d 35 85 05 00 00 	lea    0x585(%rip),%rsi        # 40228c <_IO_stdin_used+0x34c>
  401d07:	48 8d 3d 12 1f 20 00 	lea    0x201f12(%rip),%rdi        # 603c20 <scratch>
  401d0e:	b8 00 00 00 00       	mov    $0x0,%eax
  401d13:	e8 98 f0 ff ff       	callq  400db0 <sprintf@plt>
  401d18:	48 8d 3d 01 1f 20 00 	lea    0x201f01(%rip),%rdi        # 603c20 <scratch>
  401d1f:	e8 4c ef ff ff       	callq  400c70 <system@plt>
  401d24:	85 c0                	test   %eax,%eax
  401d26:	74 16                	je     401d3e <send_msg_2+0x214>
  401d28:	48 8d 3d 66 05 00 00 	lea    0x566(%rip),%rdi        # 402295 <_IO_stdin_used+0x355>
  401d2f:	e8 fc ee ff ff       	callq  400c30 <puts@plt>
  401d34:	bf 08 00 00 00       	mov    $0x8,%edi
  401d39:	e8 82 f0 ff ff       	callq  400dc0 <exit@plt>
  401d3e:	48 8b 45 f0          	mov    -0x10(%rbp),%rax
  401d42:	48 89 c7             	mov    %rax,%rdi
  401d45:	e8 06 ef ff ff       	callq  400c50 <fclose@plt>
  401d4a:	85 c0                	test   %eax,%eax
  401d4c:	74 16                	je     401d64 <send_msg_2+0x23a>
  401d4e:	48 8d 3d 5a 05 00 00 	lea    0x55a(%rip),%rdi        # 4022af <_IO_stdin_used+0x36f>
  401d55:	e8 d6 ee ff ff       	callq  400c30 <puts@plt>
  401d5a:	bf 08 00 00 00       	mov    $0x8,%edi
  401d5f:	e8 5c f0 ff ff       	callq  400dc0 <exit@plt>
  401d64:	8b 45 f8             	mov    -0x8(%rbp),%eax
  401d67:	89 c7                	mov    %eax,%edi
  401d69:	e8 42 ef ff ff       	callq  400cb0 <dup@plt>
  401d6e:	85 c0                	test   %eax,%eax
  401d70:	74 16                	je     401d88 <send_msg_2+0x25e>
  401d72:	48 8d 3d 4f 05 00 00 	lea    0x54f(%rip),%rdi        # 4022c8 <_IO_stdin_used+0x388>
  401d79:	e8 b2 ee ff ff       	callq  400c30 <puts@plt>
  401d7e:	bf 08 00 00 00       	mov    $0x8,%edi
  401d83:	e8 38 f0 ff ff       	callq  400dc0 <exit@plt>
  401d88:	8b 45 f8             	mov    -0x8(%rbp),%eax
  401d8b:	89 c7                	mov    %eax,%edi
  401d8d:	e8 2e ef ff ff       	callq  400cc0 <close@plt>
  401d92:	85 c0                	test   %eax,%eax
  401d94:	74 16                	je     401dac <send_msg_2+0x282>
  401d96:	48 8d 3d 46 05 00 00 	lea    0x546(%rip),%rdi        # 4022e3 <_IO_stdin_used+0x3a3>
  401d9d:	e8 8e ee ff ff       	callq  400c30 <puts@plt>
  401da2:	bf 08 00 00 00       	mov    $0x8,%edi
  401da7:	e8 14 f0 ff ff       	callq  400dc0 <exit@plt>
  401dac:	90                   	nop
  401dad:	c9                   	leaveq 
  401dae:	c3                   	retq   

0000000000401daf <explode_bomb>:
  401daf:	55                   	push   %rbp
  401db0:	48 89 e5             	mov    %rsp,%rbp
  401db3:	48 8d 3d 40 05 00 00 	lea    0x540(%rip),%rdi        # 4022fa <_IO_stdin_used+0x3ba>
  401dba:	e8 71 ee ff ff       	callq  400c30 <puts@plt>
  401dbf:	48 8d 3d 3d 05 00 00 	lea    0x53d(%rip),%rdi        # 402303 <_IO_stdin_used+0x3c3>
  401dc6:	e8 65 ee ff ff       	callq  400c30 <puts@plt>
  401dcb:	bf 00 00 00 00       	mov    $0x0,%edi
  401dd0:	e8 b2 f9 ff ff       	callq  401787 <send_msg>
  401dd5:	48 8d 3d 44 05 00 00 	lea    0x544(%rip),%rdi        # 402320 <_IO_stdin_used+0x3e0>
  401ddc:	e8 4f ee ff ff       	callq  400c30 <puts@plt>
  401de1:	bf 08 00 00 00       	mov    $0x8,%edi
  401de6:	e8 d5 ef ff ff       	callq  400dc0 <exit@plt>

0000000000401deb <phase_defused>:
  401deb:	55                   	push   %rbp
  401dec:	48 89 e5             	mov    %rsp,%rbp
  401def:	48 83 c4 80          	add    $0xffffffffffffff80,%rsp
  401df3:	bf 01 00 00 00       	mov    $0x1,%edi
  401df8:	e8 8a f9 ff ff       	callq  401787 <send_msg>
  401dfd:	8b 05 b9 17 20 00    	mov    0x2017b9(%rip),%eax        # 6035bc <num_input_strings>
  401e03:	83 f8 03             	cmp    $0x3,%eax
  401e06:	0f 85 a5 00 00 00    	jne    401eb1 <phase_defused+0xc6>
  401e0c:	48 8d 7d 90          	lea    -0x70(%rbp),%rdi
  401e10:	48 8d 75 94          	lea    -0x6c(%rbp),%rsi
  401e14:	48 8d 55 98          	lea    -0x68(%rbp),%rdx
  401e18:	48 8d 45 9c          	lea    -0x64(%rbp),%rax
  401e1c:	48 83 ec 08          	sub    $0x8,%rsp
  401e20:	48 8d 4d a0          	lea    -0x60(%rbp),%rcx
  401e24:	51                   	push   %rcx
  401e25:	48 8d 4d 88          	lea    -0x78(%rbp),%rcx
  401e29:	51                   	push   %rcx
  401e2a:	48 8d 4d 8c          	lea    -0x74(%rbp),%rcx
  401e2e:	51                   	push   %rcx
  401e2f:	49 89 f9             	mov    %rdi,%r9
  401e32:	49 89 f0             	mov    %rsi,%r8
  401e35:	48 89 d1             	mov    %rdx,%rcx
  401e38:	48 89 c2             	mov    %rax,%rdx
  401e3b:	48 8d 35 01 05 00 00 	lea    0x501(%rip),%rsi        # 402343 <_IO_stdin_used+0x403>
  401e42:	48 8d 3d e7 17 20 00 	lea    0x2017e7(%rip),%rdi        # 603630 <input_strings+0x50>
  401e49:	b8 00 00 00 00       	mov    $0x0,%eax
  401e4e:	e8 fd ee ff ff       	callq  400d50 <__isoc99_sscanf@plt>
  401e53:	48 83 c4 20          	add    $0x20,%rsp
  401e57:	89 45 fc             	mov    %eax,-0x4(%rbp)
  401e5a:	83 7d fc 07          	cmpl   $0x7,-0x4(%rbp)
  401e5e:	75 39                	jne    401e99 <phase_defused+0xae>
  401e60:	48 8d 45 a0          	lea    -0x60(%rbp),%rax
  401e64:	48 8d 35 ed 04 00 00 	lea    0x4ed(%rip),%rsi        # 402358 <_IO_stdin_used+0x418>
  401e6b:	48 89 c7             	mov    %rax,%rdi
  401e6e:	e8 03 f5 ff ff       	callq  401376 <strings_not_equal>
  401e73:	85 c0                	test   %eax,%eax
  401e75:	75 22                	jne    401e99 <phase_defused+0xae>
  401e77:	48 8d 3d e2 04 00 00 	lea    0x4e2(%rip),%rdi        # 402360 <_IO_stdin_used+0x420>
  401e7e:	e8 ad ed ff ff       	callq  400c30 <puts@plt>
  401e83:	48 8d 3d fe 04 00 00 	lea    0x4fe(%rip),%rdi        # 402388 <_IO_stdin_used+0x448>
  401e8a:	e8 a1 ed ff ff       	callq  400c30 <puts@plt>
  401e8f:	b8 00 00 00 00       	mov    $0x0,%eax
  401e94:	e8 1e f3 ff ff       	callq  4011b7 <secret_phase>
  401e99:	48 8d 3d 20 05 00 00 	lea    0x520(%rip),%rdi        # 4023c0 <_IO_stdin_used+0x480>
  401ea0:	e8 8b ed ff ff       	callq  400c30 <puts@plt>
  401ea5:	48 8d 3d 44 05 00 00 	lea    0x544(%rip),%rdi        # 4023f0 <_IO_stdin_used+0x4b0>
  401eac:	e8 7f ed ff ff       	callq  400c30 <puts@plt>
  401eb1:	90                   	nop
  401eb2:	c9                   	leaveq 
  401eb3:	c3                   	retq   
  401eb4:	66 2e 0f 1f 84 00 00 	nopw   %cs:0x0(%rax,%rax,1)
  401ebb:	00 00 00 
  401ebe:	66 90                	xchg   %ax,%ax

0000000000401ec0 <__libc_csu_init>:
  401ec0:	41 57                	push   %r15
  401ec2:	41 56                	push   %r14
  401ec4:	41 89 ff             	mov    %edi,%r15d
  401ec7:	41 55                	push   %r13
  401ec9:	41 54                	push   %r12
  401ecb:	4c 8d 25 36 0f 20 00 	lea    0x200f36(%rip),%r12        # 602e08 <__frame_dummy_init_array_entry>
  401ed2:	55                   	push   %rbp
  401ed3:	48 8d 2d 36 0f 20 00 	lea    0x200f36(%rip),%rbp        # 602e10 <__init_array_end>
  401eda:	53                   	push   %rbx
  401edb:	49 89 f6             	mov    %rsi,%r14
  401ede:	49 89 d5             	mov    %rdx,%r13
  401ee1:	4c 29 e5             	sub    %r12,%rbp
  401ee4:	48 83 ec 08          	sub    $0x8,%rsp
  401ee8:	48 c1 fd 03          	sar    $0x3,%rbp
  401eec:	e8 e7 ec ff ff       	callq  400bd8 <_init>
  401ef1:	48 85 ed             	test   %rbp,%rbp
  401ef4:	74 20                	je     401f16 <__libc_csu_init+0x56>
  401ef6:	31 db                	xor    %ebx,%ebx
  401ef8:	0f 1f 84 00 00 00 00 	nopl   0x0(%rax,%rax,1)
  401eff:	00 
  401f00:	4c 89 ea             	mov    %r13,%rdx
  401f03:	4c 89 f6             	mov    %r14,%rsi
  401f06:	44 89 ff             	mov    %r15d,%edi
  401f09:	41 ff 14 dc          	callq  *(%r12,%rbx,8)
  401f0d:	48 83 c3 01          	add    $0x1,%rbx
  401f11:	48 39 dd             	cmp    %rbx,%rbp
  401f14:	75 ea                	jne    401f00 <__libc_csu_init+0x40>
  401f16:	48 83 c4 08          	add    $0x8,%rsp
  401f1a:	5b                   	pop    %rbx
  401f1b:	5d                   	pop    %rbp
  401f1c:	41 5c                	pop    %r12
  401f1e:	41 5d                	pop    %r13
  401f20:	41 5e                	pop    %r14
  401f22:	41 5f                	pop    %r15
  401f24:	c3                   	retq   
  401f25:	90                   	nop
  401f26:	66 2e 0f 1f 84 00 00 	nopw   %cs:0x0(%rax,%rax,1)
  401f2d:	00 00 00 

0000000000401f30 <__libc_csu_fini>:
  401f30:	f3 c3                	repz retq 

Disassembly of section .fini:

0000000000401f34 <_fini>:
  401f34:	48 83 ec 08          	sub    $0x8,%rsp
  401f38:	48 83 c4 08          	add    $0x8,%rsp
  401f3c:	c3                   	retq   
