
ctarget:     file format elf64-x86-64


Disassembly of section .init:

0000000000400bb0 <_init>:
  400bb0:	48 83 ec 08          	sub    $0x8,%rsp
  400bb4:	48 8b 05 3d 34 20 00 	mov    0x20343d(%rip),%rax        # 603ff8 <_DYNAMIC+0x1d8>
  400bbb:	48 85 c0             	test   %rax,%rax
  400bbe:	74 02                	je     400bc2 <_init+0x12>
  400bc0:	ff d0                	callq  *%rax
  400bc2:	48 83 c4 08          	add    $0x8,%rsp
  400bc6:	c3                   	retq   

Disassembly of section .plt:

0000000000400bd0 <strcasecmp@plt-0x10>:
  400bd0:	ff 35 32 34 20 00    	pushq  0x203432(%rip)        # 604008 <_GLOBAL_OFFSET_TABLE_+0x8>
  400bd6:	ff 25 34 34 20 00    	jmpq   *0x203434(%rip)        # 604010 <_GLOBAL_OFFSET_TABLE_+0x10>
  400bdc:	0f 1f 40 00          	nopl   0x0(%rax)

0000000000400be0 <strcasecmp@plt>:
  400be0:	ff 25 32 34 20 00    	jmpq   *0x203432(%rip)        # 604018 <_GLOBAL_OFFSET_TABLE_+0x18>
  400be6:	68 00 00 00 00       	pushq  $0x0
  400beb:	e9 e0 ff ff ff       	jmpq   400bd0 <_init+0x20>

0000000000400bf0 <__errno_location@plt>:
  400bf0:	ff 25 2a 34 20 00    	jmpq   *0x20342a(%rip)        # 604020 <_GLOBAL_OFFSET_TABLE_+0x20>
  400bf6:	68 01 00 00 00       	pushq  $0x1
  400bfb:	e9 d0 ff ff ff       	jmpq   400bd0 <_init+0x20>

0000000000400c00 <srandom@plt>:
  400c00:	ff 25 22 34 20 00    	jmpq   *0x203422(%rip)        # 604028 <_GLOBAL_OFFSET_TABLE_+0x28>
  400c06:	68 02 00 00 00       	pushq  $0x2
  400c0b:	e9 c0 ff ff ff       	jmpq   400bd0 <_init+0x20>

0000000000400c10 <strncmp@plt>:
  400c10:	ff 25 1a 34 20 00    	jmpq   *0x20341a(%rip)        # 604030 <_GLOBAL_OFFSET_TABLE_+0x30>
  400c16:	68 03 00 00 00       	pushq  $0x3
  400c1b:	e9 b0 ff ff ff       	jmpq   400bd0 <_init+0x20>

0000000000400c20 <strcpy@plt>:
  400c20:	ff 25 12 34 20 00    	jmpq   *0x203412(%rip)        # 604038 <_GLOBAL_OFFSET_TABLE_+0x38>
  400c26:	68 04 00 00 00       	pushq  $0x4
  400c2b:	e9 a0 ff ff ff       	jmpq   400bd0 <_init+0x20>

0000000000400c30 <puts@plt>:
  400c30:	ff 25 0a 34 20 00    	jmpq   *0x20340a(%rip)        # 604040 <_GLOBAL_OFFSET_TABLE_+0x40>
  400c36:	68 05 00 00 00       	pushq  $0x5
  400c3b:	e9 90 ff ff ff       	jmpq   400bd0 <_init+0x20>

0000000000400c40 <write@plt>:
  400c40:	ff 25 02 34 20 00    	jmpq   *0x203402(%rip)        # 604048 <_GLOBAL_OFFSET_TABLE_+0x48>
  400c46:	68 06 00 00 00       	pushq  $0x6
  400c4b:	e9 80 ff ff ff       	jmpq   400bd0 <_init+0x20>

0000000000400c50 <mmap@plt>:
  400c50:	ff 25 fa 33 20 00    	jmpq   *0x2033fa(%rip)        # 604050 <_GLOBAL_OFFSET_TABLE_+0x50>
  400c56:	68 07 00 00 00       	pushq  $0x7
  400c5b:	e9 70 ff ff ff       	jmpq   400bd0 <_init+0x20>

0000000000400c60 <printf@plt>:
  400c60:	ff 25 f2 33 20 00    	jmpq   *0x2033f2(%rip)        # 604058 <_GLOBAL_OFFSET_TABLE_+0x58>
  400c66:	68 08 00 00 00       	pushq  $0x8
  400c6b:	e9 60 ff ff ff       	jmpq   400bd0 <_init+0x20>

0000000000400c70 <memset@plt>:
  400c70:	ff 25 ea 33 20 00    	jmpq   *0x2033ea(%rip)        # 604060 <_GLOBAL_OFFSET_TABLE_+0x60>
  400c76:	68 09 00 00 00       	pushq  $0x9
  400c7b:	e9 50 ff ff ff       	jmpq   400bd0 <_init+0x20>

0000000000400c80 <alarm@plt>:
  400c80:	ff 25 e2 33 20 00    	jmpq   *0x2033e2(%rip)        # 604068 <_GLOBAL_OFFSET_TABLE_+0x68>
  400c86:	68 0a 00 00 00       	pushq  $0xa
  400c8b:	e9 40 ff ff ff       	jmpq   400bd0 <_init+0x20>

0000000000400c90 <close@plt>:
  400c90:	ff 25 da 33 20 00    	jmpq   *0x2033da(%rip)        # 604070 <_GLOBAL_OFFSET_TABLE_+0x70>
  400c96:	68 0b 00 00 00       	pushq  $0xb
  400c9b:	e9 30 ff ff ff       	jmpq   400bd0 <_init+0x20>

0000000000400ca0 <read@plt>:
  400ca0:	ff 25 d2 33 20 00    	jmpq   *0x2033d2(%rip)        # 604078 <_GLOBAL_OFFSET_TABLE_+0x78>
  400ca6:	68 0c 00 00 00       	pushq  $0xc
  400cab:	e9 20 ff ff ff       	jmpq   400bd0 <_init+0x20>

0000000000400cb0 <signal@plt>:
  400cb0:	ff 25 ca 33 20 00    	jmpq   *0x2033ca(%rip)        # 604080 <_GLOBAL_OFFSET_TABLE_+0x80>
  400cb6:	68 0d 00 00 00       	pushq  $0xd
  400cbb:	e9 10 ff ff ff       	jmpq   400bd0 <_init+0x20>

0000000000400cc0 <gethostbyname@plt>:
  400cc0:	ff 25 c2 33 20 00    	jmpq   *0x2033c2(%rip)        # 604088 <_GLOBAL_OFFSET_TABLE_+0x88>
  400cc6:	68 0e 00 00 00       	pushq  $0xe
  400ccb:	e9 00 ff ff ff       	jmpq   400bd0 <_init+0x20>

0000000000400cd0 <fprintf@plt>:
  400cd0:	ff 25 ba 33 20 00    	jmpq   *0x2033ba(%rip)        # 604090 <_GLOBAL_OFFSET_TABLE_+0x90>
  400cd6:	68 0f 00 00 00       	pushq  $0xf
  400cdb:	e9 f0 fe ff ff       	jmpq   400bd0 <_init+0x20>

0000000000400ce0 <strtol@plt>:
  400ce0:	ff 25 b2 33 20 00    	jmpq   *0x2033b2(%rip)        # 604098 <_GLOBAL_OFFSET_TABLE_+0x98>
  400ce6:	68 10 00 00 00       	pushq  $0x10
  400ceb:	e9 e0 fe ff ff       	jmpq   400bd0 <_init+0x20>

0000000000400cf0 <memcpy@plt>:
  400cf0:	ff 25 aa 33 20 00    	jmpq   *0x2033aa(%rip)        # 6040a0 <_GLOBAL_OFFSET_TABLE_+0xa0>
  400cf6:	68 11 00 00 00       	pushq  $0x11
  400cfb:	e9 d0 fe ff ff       	jmpq   400bd0 <_init+0x20>

0000000000400d00 <time@plt>:
  400d00:	ff 25 a2 33 20 00    	jmpq   *0x2033a2(%rip)        # 6040a8 <_GLOBAL_OFFSET_TABLE_+0xa8>
  400d06:	68 12 00 00 00       	pushq  $0x12
  400d0b:	e9 c0 fe ff ff       	jmpq   400bd0 <_init+0x20>

0000000000400d10 <random@plt>:
  400d10:	ff 25 9a 33 20 00    	jmpq   *0x20339a(%rip)        # 6040b0 <_GLOBAL_OFFSET_TABLE_+0xb0>
  400d16:	68 13 00 00 00       	pushq  $0x13
  400d1b:	e9 b0 fe ff ff       	jmpq   400bd0 <_init+0x20>

0000000000400d20 <_IO_getc@plt>:
  400d20:	ff 25 92 33 20 00    	jmpq   *0x203392(%rip)        # 6040b8 <_GLOBAL_OFFSET_TABLE_+0xb8>
  400d26:	68 14 00 00 00       	pushq  $0x14
  400d2b:	e9 a0 fe ff ff       	jmpq   400bd0 <_init+0x20>

0000000000400d30 <__isoc99_sscanf@plt>:
  400d30:	ff 25 8a 33 20 00    	jmpq   *0x20338a(%rip)        # 6040c0 <_GLOBAL_OFFSET_TABLE_+0xc0>
  400d36:	68 15 00 00 00       	pushq  $0x15
  400d3b:	e9 90 fe ff ff       	jmpq   400bd0 <_init+0x20>

0000000000400d40 <munmap@plt>:
  400d40:	ff 25 82 33 20 00    	jmpq   *0x203382(%rip)        # 6040c8 <_GLOBAL_OFFSET_TABLE_+0xc8>
  400d46:	68 16 00 00 00       	pushq  $0x16
  400d4b:	e9 80 fe ff ff       	jmpq   400bd0 <_init+0x20>

0000000000400d50 <bcopy@plt>:
  400d50:	ff 25 7a 33 20 00    	jmpq   *0x20337a(%rip)        # 6040d0 <_GLOBAL_OFFSET_TABLE_+0xd0>
  400d56:	68 17 00 00 00       	pushq  $0x17
  400d5b:	e9 70 fe ff ff       	jmpq   400bd0 <_init+0x20>

0000000000400d60 <fopen@plt>:
  400d60:	ff 25 72 33 20 00    	jmpq   *0x203372(%rip)        # 6040d8 <_GLOBAL_OFFSET_TABLE_+0xd8>
  400d66:	68 18 00 00 00       	pushq  $0x18
  400d6b:	e9 60 fe ff ff       	jmpq   400bd0 <_init+0x20>

0000000000400d70 <getopt@plt>:
  400d70:	ff 25 6a 33 20 00    	jmpq   *0x20336a(%rip)        # 6040e0 <_GLOBAL_OFFSET_TABLE_+0xe0>
  400d76:	68 19 00 00 00       	pushq  $0x19
  400d7b:	e9 50 fe ff ff       	jmpq   400bd0 <_init+0x20>

0000000000400d80 <strtoul@plt>:
  400d80:	ff 25 62 33 20 00    	jmpq   *0x203362(%rip)        # 6040e8 <_GLOBAL_OFFSET_TABLE_+0xe8>
  400d86:	68 1a 00 00 00       	pushq  $0x1a
  400d8b:	e9 40 fe ff ff       	jmpq   400bd0 <_init+0x20>

0000000000400d90 <gethostname@plt>:
  400d90:	ff 25 5a 33 20 00    	jmpq   *0x20335a(%rip)        # 6040f0 <_GLOBAL_OFFSET_TABLE_+0xf0>
  400d96:	68 1b 00 00 00       	pushq  $0x1b
  400d9b:	e9 30 fe ff ff       	jmpq   400bd0 <_init+0x20>

0000000000400da0 <sprintf@plt>:
  400da0:	ff 25 52 33 20 00    	jmpq   *0x203352(%rip)        # 6040f8 <_GLOBAL_OFFSET_TABLE_+0xf8>
  400da6:	68 1c 00 00 00       	pushq  $0x1c
  400dab:	e9 20 fe ff ff       	jmpq   400bd0 <_init+0x20>

0000000000400db0 <exit@plt>:
  400db0:	ff 25 4a 33 20 00    	jmpq   *0x20334a(%rip)        # 604100 <_GLOBAL_OFFSET_TABLE_+0x100>
  400db6:	68 1d 00 00 00       	pushq  $0x1d
  400dbb:	e9 10 fe ff ff       	jmpq   400bd0 <_init+0x20>

0000000000400dc0 <connect@plt>:
  400dc0:	ff 25 42 33 20 00    	jmpq   *0x203342(%rip)        # 604108 <_GLOBAL_OFFSET_TABLE_+0x108>
  400dc6:	68 1e 00 00 00       	pushq  $0x1e
  400dcb:	e9 00 fe ff ff       	jmpq   400bd0 <_init+0x20>

0000000000400dd0 <socket@plt>:
  400dd0:	ff 25 3a 33 20 00    	jmpq   *0x20333a(%rip)        # 604110 <_GLOBAL_OFFSET_TABLE_+0x110>
  400dd6:	68 1f 00 00 00       	pushq  $0x1f
  400ddb:	e9 f0 fd ff ff       	jmpq   400bd0 <_init+0x20>

Disassembly of section .text:

0000000000400de0 <_start>:
  400de0:	31 ed                	xor    %ebp,%ebp
  400de2:	49 89 d1             	mov    %rdx,%r9
  400de5:	5e                   	pop    %rsi
  400de6:	48 89 e2             	mov    %rsp,%rdx
  400de9:	48 83 e4 f0          	and    $0xfffffffffffffff0,%rsp
  400ded:	50                   	push   %rax
  400dee:	54                   	push   %rsp
  400def:	49 c7 c0 00 2c 40 00 	mov    $0x402c00,%r8
  400df6:	48 c7 c1 90 2b 40 00 	mov    $0x402b90,%rcx
  400dfd:	48 c7 c7 8d 10 40 00 	mov    $0x40108d,%rdi
  400e04:	ff 15 e6 31 20 00    	callq  *0x2031e6(%rip)        # 603ff0 <_DYNAMIC+0x1d0>
  400e0a:	f4                   	hlt    
  400e0b:	0f 1f 44 00 00       	nopl   0x0(%rax,%rax,1)

0000000000400e10 <deregister_tm_clones>:
  400e10:	b8 97 44 60 00       	mov    $0x604497,%eax
  400e15:	55                   	push   %rbp
  400e16:	48 2d 90 44 60 00    	sub    $0x604490,%rax
  400e1c:	48 83 f8 0e          	cmp    $0xe,%rax
  400e20:	48 89 e5             	mov    %rsp,%rbp
  400e23:	76 1b                	jbe    400e40 <deregister_tm_clones+0x30>
  400e25:	b8 00 00 00 00       	mov    $0x0,%eax
  400e2a:	48 85 c0             	test   %rax,%rax
  400e2d:	74 11                	je     400e40 <deregister_tm_clones+0x30>
  400e2f:	5d                   	pop    %rbp
  400e30:	bf 90 44 60 00       	mov    $0x604490,%edi
  400e35:	ff e0                	jmpq   *%rax
  400e37:	66 0f 1f 84 00 00 00 	nopw   0x0(%rax,%rax,1)
  400e3e:	00 00 
  400e40:	5d                   	pop    %rbp
  400e41:	c3                   	retq   
  400e42:	0f 1f 40 00          	nopl   0x0(%rax)
  400e46:	66 2e 0f 1f 84 00 00 	nopw   %cs:0x0(%rax,%rax,1)
  400e4d:	00 00 00 

0000000000400e50 <register_tm_clones>:
  400e50:	be 90 44 60 00       	mov    $0x604490,%esi
  400e55:	55                   	push   %rbp
  400e56:	48 81 ee 90 44 60 00 	sub    $0x604490,%rsi
  400e5d:	48 c1 fe 03          	sar    $0x3,%rsi
  400e61:	48 89 e5             	mov    %rsp,%rbp
  400e64:	48 89 f0             	mov    %rsi,%rax
  400e67:	48 c1 e8 3f          	shr    $0x3f,%rax
  400e6b:	48 01 c6             	add    %rax,%rsi
  400e6e:	48 d1 fe             	sar    %rsi
  400e71:	74 15                	je     400e88 <register_tm_clones+0x38>
  400e73:	b8 00 00 00 00       	mov    $0x0,%eax
  400e78:	48 85 c0             	test   %rax,%rax
  400e7b:	74 0b                	je     400e88 <register_tm_clones+0x38>
  400e7d:	5d                   	pop    %rbp
  400e7e:	bf 90 44 60 00       	mov    $0x604490,%edi
  400e83:	ff e0                	jmpq   *%rax
  400e85:	0f 1f 00             	nopl   (%rax)
  400e88:	5d                   	pop    %rbp
  400e89:	c3                   	retq   
  400e8a:	66 0f 1f 44 00 00    	nopw   0x0(%rax,%rax,1)

0000000000400e90 <__do_global_dtors_aux>:
  400e90:	80 3d 31 36 20 00 00 	cmpb   $0x0,0x203631(%rip)        # 6044c8 <completed.6963>
  400e97:	75 11                	jne    400eaa <__do_global_dtors_aux+0x1a>
  400e99:	55                   	push   %rbp
  400e9a:	48 89 e5             	mov    %rsp,%rbp
  400e9d:	e8 6e ff ff ff       	callq  400e10 <deregister_tm_clones>
  400ea2:	5d                   	pop    %rbp
  400ea3:	c6 05 1e 36 20 00 01 	movb   $0x1,0x20361e(%rip)        # 6044c8 <completed.6963>
  400eaa:	f3 c3                	repz retq 
  400eac:	0f 1f 40 00          	nopl   0x0(%rax)

0000000000400eb0 <frame_dummy>:
  400eb0:	bf 18 3e 60 00       	mov    $0x603e18,%edi
  400eb5:	48 83 3f 00          	cmpq   $0x0,(%rdi)
  400eb9:	75 05                	jne    400ec0 <frame_dummy+0x10>
  400ebb:	eb 93                	jmp    400e50 <register_tm_clones>
  400ebd:	0f 1f 00             	nopl   (%rax)
  400ec0:	b8 00 00 00 00       	mov    $0x0,%eax
  400ec5:	48 85 c0             	test   %rax,%rax
  400ec8:	74 f1                	je     400ebb <frame_dummy+0xb>
  400eca:	55                   	push   %rbp
  400ecb:	48 89 e5             	mov    %rsp,%rbp
  400ece:	ff d0                	callq  *%rax
  400ed0:	5d                   	pop    %rbp
  400ed1:	e9 7a ff ff ff       	jmpq   400e50 <register_tm_clones>

0000000000400ed6 <usage>:
  400ed6:	48 83 ec 08          	sub    $0x8,%rsp
  400eda:	48 89 fe             	mov    %rdi,%rsi
  400edd:	83 3d 24 36 20 00 00 	cmpl   $0x0,0x203624(%rip)        # 604508 <is_checker>
  400ee4:	74 4b                	je     400f31 <usage+0x5b>
  400ee6:	48 8d 3d 2b 1d 00 00 	lea    0x1d2b(%rip),%rdi        # 402c18 <_IO_stdin_used+0x8>
  400eed:	b8 00 00 00 00       	mov    $0x0,%eax
  400ef2:	e8 69 fd ff ff       	callq  400c60 <printf@plt>
  400ef7:	48 8d 3d 52 1d 00 00 	lea    0x1d52(%rip),%rdi        # 402c50 <_IO_stdin_used+0x40>
  400efe:	e8 2d fd ff ff       	callq  400c30 <puts@plt>
  400f03:	48 8d 3d 7e 1e 00 00 	lea    0x1e7e(%rip),%rdi        # 402d88 <_IO_stdin_used+0x178>
  400f0a:	e8 21 fd ff ff       	callq  400c30 <puts@plt>
  400f0f:	48 8d 3d 62 1d 00 00 	lea    0x1d62(%rip),%rdi        # 402c78 <_IO_stdin_used+0x68>
  400f16:	e8 15 fd ff ff       	callq  400c30 <puts@plt>
  400f1b:	48 8d 3d 80 1e 00 00 	lea    0x1e80(%rip),%rdi        # 402da2 <_IO_stdin_used+0x192>
  400f22:	e8 09 fd ff ff       	callq  400c30 <puts@plt>
  400f27:	bf 00 00 00 00       	mov    $0x0,%edi
  400f2c:	e8 7f fe ff ff       	callq  400db0 <exit@plt>
  400f31:	48 8d 3d 86 1e 00 00 	lea    0x1e86(%rip),%rdi        # 402dbe <_IO_stdin_used+0x1ae>
  400f38:	b8 00 00 00 00       	mov    $0x0,%eax
  400f3d:	e8 1e fd ff ff       	callq  400c60 <printf@plt>
  400f42:	48 8d 3d 57 1d 00 00 	lea    0x1d57(%rip),%rdi        # 402ca0 <_IO_stdin_used+0x90>
  400f49:	e8 e2 fc ff ff       	callq  400c30 <puts@plt>
  400f4e:	48 8d 3d 73 1d 00 00 	lea    0x1d73(%rip),%rdi        # 402cc8 <_IO_stdin_used+0xb8>
  400f55:	e8 d6 fc ff ff       	callq  400c30 <puts@plt>
  400f5a:	48 8d 3d 7b 1e 00 00 	lea    0x1e7b(%rip),%rdi        # 402ddc <_IO_stdin_used+0x1cc>
  400f61:	e8 ca fc ff ff       	callq  400c30 <puts@plt>
  400f66:	eb bf                	jmp    400f27 <usage+0x51>

0000000000400f68 <initialize_target>:
  400f68:	55                   	push   %rbp
  400f69:	53                   	push   %rbx
  400f6a:	48 81 ec 08 21 00 00 	sub    $0x2108,%rsp
  400f71:	89 f5                	mov    %esi,%ebp
  400f73:	89 3d 7f 35 20 00    	mov    %edi,0x20357f(%rip)        # 6044f8 <check_level>
  400f79:	8b 3d b1 31 20 00    	mov    0x2031b1(%rip),%edi        # 604130 <target_id>
  400f7f:	e8 e2 1b 00 00       	callq  402b66 <gencookie>
  400f84:	89 05 7a 35 20 00    	mov    %eax,0x20357a(%rip)        # 604504 <cookie>
  400f8a:	89 c7                	mov    %eax,%edi
  400f8c:	e8 d5 1b 00 00       	callq  402b66 <gencookie>
  400f91:	89 05 69 35 20 00    	mov    %eax,0x203569(%rip)        # 604500 <authkey>
  400f97:	8b 05 93 31 20 00    	mov    0x203193(%rip),%eax        # 604130 <target_id>
  400f9d:	8d 78 01             	lea    0x1(%rax),%edi
  400fa0:	e8 5b fc ff ff       	callq  400c00 <srandom@plt>
  400fa5:	e8 66 fd ff ff       	callq  400d10 <random@plt>
  400faa:	89 c7                	mov    %eax,%edi
  400fac:	e8 c3 02 00 00       	callq  401274 <scramble>
  400fb1:	89 c3                	mov    %eax,%ebx
  400fb3:	85 ed                	test   %ebp,%ebp
  400fb5:	75 3d                	jne    400ff4 <initialize_target+0x8c>
  400fb7:	b8 00 00 00 00       	mov    $0x0,%eax
  400fbc:	01 d8                	add    %ebx,%eax
  400fbe:	0f b7 c0             	movzwl %ax,%eax
  400fc1:	8d 04 c5 00 01 00 00 	lea    0x100(,%rax,8),%eax
  400fc8:	89 c0                	mov    %eax,%eax
  400fca:	48 89 05 af 34 20 00 	mov    %rax,0x2034af(%rip)        # 604480 <buf_offset>
  400fd1:	c6 05 50 41 20 00 63 	movb   $0x63,0x204150(%rip)        # 605128 <target_prefix>
  400fd8:	83 3d a9 34 20 00 00 	cmpl   $0x0,0x2034a9(%rip)        # 604488 <notify>
  400fdf:	74 09                	je     400fea <initialize_target+0x82>
  400fe1:	83 3d 20 35 20 00 00 	cmpl   $0x0,0x203520(%rip)        # 604508 <is_checker>
  400fe8:	74 22                	je     40100c <initialize_target+0xa4>
  400fea:	48 81 c4 08 21 00 00 	add    $0x2108,%rsp
  400ff1:	5b                   	pop    %rbx
  400ff2:	5d                   	pop    %rbp
  400ff3:	c3                   	retq   
  400ff4:	bf 00 00 00 00       	mov    $0x0,%edi
  400ff9:	e8 02 fd ff ff       	callq  400d00 <time@plt>
  400ffe:	89 c7                	mov    %eax,%edi
  401000:	e8 fb fb ff ff       	callq  400c00 <srandom@plt>
  401005:	e8 06 fd ff ff       	callq  400d10 <random@plt>
  40100a:	eb b0                	jmp    400fbc <initialize_target+0x54>
  40100c:	48 89 e7             	mov    %rsp,%rdi
  40100f:	be 00 01 00 00       	mov    $0x100,%esi
  401014:	e8 77 fd ff ff       	callq  400d90 <gethostname@plt>
  401019:	89 c3                	mov    %eax,%ebx
  40101b:	85 c0                	test   %eax,%eax
  40101d:	75 24                	jne    401043 <initialize_target+0xdb>
  40101f:	48 63 c3             	movslq %ebx,%rax
  401022:	48 8d 15 37 31 20 00 	lea    0x203137(%rip),%rdx        # 604160 <host_table>
  401029:	48 8b 3c c2          	mov    (%rdx,%rax,8),%rdi
  40102d:	48 85 ff             	test   %rdi,%rdi
  401030:	74 27                	je     401059 <initialize_target+0xf1>
  401032:	48 89 e6             	mov    %rsp,%rsi
  401035:	e8 a6 fb ff ff       	callq  400be0 <strcasecmp@plt>
  40103a:	85 c0                	test   %eax,%eax
  40103c:	74 1b                	je     401059 <initialize_target+0xf1>
  40103e:	83 c3 01             	add    $0x1,%ebx
  401041:	eb dc                	jmp    40101f <initialize_target+0xb7>
  401043:	48 8d 3d ae 1c 00 00 	lea    0x1cae(%rip),%rdi        # 402cf8 <_IO_stdin_used+0xe8>
  40104a:	e8 e1 fb ff ff       	callq  400c30 <puts@plt>
  40104f:	bf 08 00 00 00       	mov    $0x8,%edi
  401054:	e8 57 fd ff ff       	callq  400db0 <exit@plt>
  401059:	48 8d bc 24 00 01 00 	lea    0x100(%rsp),%rdi
  401060:	00 
  401061:	e8 85 18 00 00       	callq  4028eb <init_driver>
  401066:	85 c0                	test   %eax,%eax
  401068:	79 80                	jns    400fea <initialize_target+0x82>
  40106a:	48 8d b4 24 00 01 00 	lea    0x100(%rsp),%rsi
  401071:	00 
  401072:	48 8d 3d b7 1c 00 00 	lea    0x1cb7(%rip),%rdi        # 402d30 <_IO_stdin_used+0x120>
  401079:	b8 00 00 00 00       	mov    $0x0,%eax
  40107e:	e8 dd fb ff ff       	callq  400c60 <printf@plt>
  401083:	bf 08 00 00 00       	mov    $0x8,%edi
  401088:	e8 23 fd ff ff       	callq  400db0 <exit@plt>

000000000040108d <main>:
  40108d:	41 56                	push   %r14
  40108f:	41 55                	push   %r13
  401091:	41 54                	push   %r12
  401093:	55                   	push   %rbp
  401094:	53                   	push   %rbx
  401095:	41 89 fc             	mov    %edi,%r12d
  401098:	48 89 f3             	mov    %rsi,%rbx
  40109b:	48 c7 c6 91 1c 40 00 	mov    $0x401c91,%rsi
  4010a2:	bf 0b 00 00 00       	mov    $0xb,%edi
  4010a7:	e8 04 fc ff ff       	callq  400cb0 <signal@plt>
  4010ac:	48 c7 c6 3d 1c 40 00 	mov    $0x401c3d,%rsi
  4010b3:	bf 07 00 00 00       	mov    $0x7,%edi
  4010b8:	e8 f3 fb ff ff       	callq  400cb0 <signal@plt>
  4010bd:	48 c7 c6 e5 1c 40 00 	mov    $0x401ce5,%rsi
  4010c4:	bf 04 00 00 00       	mov    $0x4,%edi
  4010c9:	e8 e2 fb ff ff       	callq  400cb0 <signal@plt>
  4010ce:	83 3d 33 34 20 00 00 	cmpl   $0x0,0x203433(%rip)        # 604508 <is_checker>
  4010d5:	75 58                	jne    40112f <main+0xa2>
  4010d7:	48 8d 2d 17 1d 00 00 	lea    0x1d17(%rip),%rbp        # 402df5 <_IO_stdin_used+0x1e5>
  4010de:	48 8b 05 bb 33 20 00 	mov    0x2033bb(%rip),%rax        # 6044a0 <stdin@@GLIBC_2.2.5>
  4010e5:	48 89 05 04 34 20 00 	mov    %rax,0x203404(%rip)        # 6044f0 <infile>
  4010ec:	41 bd 00 00 00 00    	mov    $0x0,%r13d
  4010f2:	41 be 00 00 00 00    	mov    $0x0,%r14d
  4010f8:	48 89 ea             	mov    %rbp,%rdx
  4010fb:	48 89 de             	mov    %rbx,%rsi
  4010fe:	44 89 e7             	mov    %r12d,%edi
  401101:	e8 6a fc ff ff       	callq  400d70 <getopt@plt>
  401106:	3c ff                	cmp    $0xff,%al
  401108:	0f 84 f8 00 00 00    	je     401206 <main+0x179>
  40110e:	0f be f0             	movsbl %al,%esi
  401111:	83 e8 61             	sub    $0x61,%eax
  401114:	3c 10                	cmp    $0x10,%al
  401116:	0f 87 d1 00 00 00    	ja     4011ed <main+0x160>
  40111c:	0f b6 c0             	movzbl %al,%eax
  40111f:	48 8d 15 1a 1d 00 00 	lea    0x1d1a(%rip),%rdx        # 402e40 <_IO_stdin_used+0x230>
  401126:	48 63 04 82          	movslq (%rdx,%rax,4),%rax
  40112a:	48 01 d0             	add    %rdx,%rax
  40112d:	ff e0                	jmpq   *%rax
  40112f:	48 c7 c6 39 1d 40 00 	mov    $0x401d39,%rsi
  401136:	bf 0e 00 00 00       	mov    $0xe,%edi
  40113b:	e8 70 fb ff ff       	callq  400cb0 <signal@plt>
  401140:	bf 05 00 00 00       	mov    $0x5,%edi
  401145:	e8 36 fb ff ff       	callq  400c80 <alarm@plt>
  40114a:	48 8d 2d a9 1c 00 00 	lea    0x1ca9(%rip),%rbp        # 402dfa <_IO_stdin_used+0x1ea>
  401151:	eb 8b                	jmp    4010de <main+0x51>
  401153:	48 8b 3b             	mov    (%rbx),%rdi
  401156:	e8 7b fd ff ff       	callq  400ed6 <usage>
  40115b:	48 8d 35 fb 1e 00 00 	lea    0x1efb(%rip),%rsi        # 40305d <_IO_stdin_used+0x44d>
  401162:	48 8b 3d 3f 33 20 00 	mov    0x20333f(%rip),%rdi        # 6044a8 <optarg@@GLIBC_2.2.5>
  401169:	e8 f2 fb ff ff       	callq  400d60 <fopen@plt>
  40116e:	48 89 05 7b 33 20 00 	mov    %rax,0x20337b(%rip)        # 6044f0 <infile>
  401175:	48 85 c0             	test   %rax,%rax
  401178:	0f 85 7a ff ff ff    	jne    4010f8 <main+0x6b>
  40117e:	48 8b 15 23 33 20 00 	mov    0x203323(%rip),%rdx        # 6044a8 <optarg@@GLIBC_2.2.5>
  401185:	48 8d 35 76 1c 00 00 	lea    0x1c76(%rip),%rsi        # 402e02 <_IO_stdin_used+0x1f2>
  40118c:	48 8b 3d 2d 33 20 00 	mov    0x20332d(%rip),%rdi        # 6044c0 <stderr@@GLIBC_2.2.5>
  401193:	e8 38 fb ff ff       	callq  400cd0 <fprintf@plt>
  401198:	b8 01 00 00 00       	mov    $0x1,%eax
  40119d:	e9 c9 00 00 00       	jmpq   40126b <main+0x1de>
  4011a2:	ba 10 00 00 00       	mov    $0x10,%edx
  4011a7:	be 00 00 00 00       	mov    $0x0,%esi
  4011ac:	48 8b 3d f5 32 20 00 	mov    0x2032f5(%rip),%rdi        # 6044a8 <optarg@@GLIBC_2.2.5>
  4011b3:	e8 c8 fb ff ff       	callq  400d80 <strtoul@plt>
  4011b8:	41 89 c6             	mov    %eax,%r14d
  4011bb:	e9 38 ff ff ff       	jmpq   4010f8 <main+0x6b>
  4011c0:	ba 0a 00 00 00       	mov    $0xa,%edx
  4011c5:	be 00 00 00 00       	mov    $0x0,%esi
  4011ca:	48 8b 3d d7 32 20 00 	mov    0x2032d7(%rip),%rdi        # 6044a8 <optarg@@GLIBC_2.2.5>
  4011d1:	e8 0a fb ff ff       	callq  400ce0 <strtol@plt>
  4011d6:	41 89 c5             	mov    %eax,%r13d
  4011d9:	e9 1a ff ff ff       	jmpq   4010f8 <main+0x6b>
  4011de:	c7 05 a0 32 20 00 00 	movl   $0x0,0x2032a0(%rip)        # 604488 <notify>
  4011e5:	00 00 00 
  4011e8:	e9 0b ff ff ff       	jmpq   4010f8 <main+0x6b>
  4011ed:	48 8d 3d 2b 1c 00 00 	lea    0x1c2b(%rip),%rdi        # 402e1f <_IO_stdin_used+0x20f>
  4011f4:	b8 00 00 00 00       	mov    $0x0,%eax
  4011f9:	e8 62 fa ff ff       	callq  400c60 <printf@plt>
  4011fe:	48 8b 3b             	mov    (%rbx),%rdi
  401201:	e8 d0 fc ff ff       	callq  400ed6 <usage>
  401206:	be 00 00 00 00       	mov    $0x0,%esi
  40120b:	44 89 ef             	mov    %r13d,%edi
  40120e:	e8 55 fd ff ff       	callq  400f68 <initialize_target>
  401213:	83 3d ee 32 20 00 00 	cmpl   $0x0,0x2032ee(%rip)        # 604508 <is_checker>
  40121a:	74 27                	je     401243 <main+0x1b6>
  40121c:	44 3b 35 dd 32 20 00 	cmp    0x2032dd(%rip),%r14d        # 604500 <authkey>
  401223:	74 1e                	je     401243 <main+0x1b6>
  401225:	44 89 f6             	mov    %r14d,%esi
  401228:	48 8d 3d 29 1b 00 00 	lea    0x1b29(%rip),%rdi        # 402d58 <_IO_stdin_used+0x148>
  40122f:	b8 00 00 00 00       	mov    $0x0,%eax
  401234:	e8 27 fa ff ff       	callq  400c60 <printf@plt>
  401239:	b8 00 00 00 00       	mov    $0x0,%eax
  40123e:	e8 ca 06 00 00       	callq  40190d <check_fail>
  401243:	8b 35 bb 32 20 00    	mov    0x2032bb(%rip),%esi        # 604504 <cookie>
  401249:	48 8d 3d e2 1b 00 00 	lea    0x1be2(%rip),%rdi        # 402e32 <_IO_stdin_used+0x222>
  401250:	b8 00 00 00 00       	mov    $0x0,%eax
  401255:	e8 06 fa ff ff       	callq  400c60 <printf@plt>
  40125a:	48 8b 3d 1f 32 20 00 	mov    0x20321f(%rip),%rdi        # 604480 <buf_offset>
  401261:	e8 ae 0b 00 00       	callq  401e14 <stable_launch>
  401266:	b8 00 00 00 00       	mov    $0x0,%eax
  40126b:	5b                   	pop    %rbx
  40126c:	5d                   	pop    %rbp
  40126d:	41 5c                	pop    %r12
  40126f:	41 5d                	pop    %r13
  401271:	41 5e                	pop    %r14
  401273:	c3                   	retq   

0000000000401274 <scramble>:
  401274:	b8 00 00 00 00       	mov    $0x0,%eax
  401279:	eb 11                	jmp    40128c <scramble+0x18>
  40127b:	69 d0 8e 49 00 00    	imul   $0x498e,%eax,%edx
  401281:	01 fa                	add    %edi,%edx
  401283:	89 c1                	mov    %eax,%ecx
  401285:	89 54 8c d0          	mov    %edx,-0x30(%rsp,%rcx,4)
  401289:	83 c0 01             	add    $0x1,%eax
  40128c:	83 f8 09             	cmp    $0x9,%eax
  40128f:	76 ea                	jbe    40127b <scramble+0x7>
  401291:	8b 44 24 d4          	mov    -0x2c(%rsp),%eax
  401295:	69 c0 d8 04 00 00    	imul   $0x4d8,%eax,%eax
  40129b:	89 44 24 d4          	mov    %eax,-0x2c(%rsp)
  40129f:	8b 44 24 dc          	mov    -0x24(%rsp),%eax
  4012a3:	69 c0 a3 32 00 00    	imul   $0x32a3,%eax,%eax
  4012a9:	89 44 24 dc          	mov    %eax,-0x24(%rsp)
  4012ad:	8b 44 24 f4          	mov    -0xc(%rsp),%eax
  4012b1:	69 c0 26 4d 00 00    	imul   $0x4d26,%eax,%eax
  4012b7:	89 44 24 f4          	mov    %eax,-0xc(%rsp)
  4012bb:	8b 44 24 f0          	mov    -0x10(%rsp),%eax
  4012bf:	69 c0 cf c5 00 00    	imul   $0xc5cf,%eax,%eax
  4012c5:	89 44 24 f0          	mov    %eax,-0x10(%rsp)
  4012c9:	8b 44 24 d8          	mov    -0x28(%rsp),%eax
  4012cd:	69 c0 d8 d6 00 00    	imul   $0xd6d8,%eax,%eax
  4012d3:	89 44 24 d8          	mov    %eax,-0x28(%rsp)
  4012d7:	8b 44 24 d0          	mov    -0x30(%rsp),%eax
  4012db:	69 c0 ac 98 00 00    	imul   $0x98ac,%eax,%eax
  4012e1:	89 44 24 d0          	mov    %eax,-0x30(%rsp)
  4012e5:	8b 44 24 e0          	mov    -0x20(%rsp),%eax
  4012e9:	69 c0 4d b3 00 00    	imul   $0xb34d,%eax,%eax
  4012ef:	89 44 24 e0          	mov    %eax,-0x20(%rsp)
  4012f3:	8b 44 24 f0          	mov    -0x10(%rsp),%eax
  4012f7:	69 c0 81 ac 00 00    	imul   $0xac81,%eax,%eax
  4012fd:	89 44 24 f0          	mov    %eax,-0x10(%rsp)
  401301:	8b 44 24 e0          	mov    -0x20(%rsp),%eax
  401305:	69 c0 6f 92 00 00    	imul   $0x926f,%eax,%eax
  40130b:	89 44 24 e0          	mov    %eax,-0x20(%rsp)
  40130f:	8b 44 24 e4          	mov    -0x1c(%rsp),%eax
  401313:	69 c0 ff 96 00 00    	imul   $0x96ff,%eax,%eax
  401319:	89 44 24 e4          	mov    %eax,-0x1c(%rsp)
  40131d:	8b 44 24 f4          	mov    -0xc(%rsp),%eax
  401321:	69 c0 e2 28 00 00    	imul   $0x28e2,%eax,%eax
  401327:	89 44 24 f4          	mov    %eax,-0xc(%rsp)
  40132b:	8b 44 24 dc          	mov    -0x24(%rsp),%eax
  40132f:	69 c0 e8 35 00 00    	imul   $0x35e8,%eax,%eax
  401335:	89 44 24 dc          	mov    %eax,-0x24(%rsp)
  401339:	8b 44 24 d8          	mov    -0x28(%rsp),%eax
  40133d:	69 c0 8c 76 00 00    	imul   $0x768c,%eax,%eax
  401343:	89 44 24 d8          	mov    %eax,-0x28(%rsp)
  401347:	8b 44 24 ec          	mov    -0x14(%rsp),%eax
  40134b:	69 c0 96 b4 00 00    	imul   $0xb496,%eax,%eax
  401351:	89 44 24 ec          	mov    %eax,-0x14(%rsp)
  401355:	8b 44 24 d4          	mov    -0x2c(%rsp),%eax
  401359:	69 c0 b7 8e 00 00    	imul   $0x8eb7,%eax,%eax
  40135f:	89 44 24 d4          	mov    %eax,-0x2c(%rsp)
  401363:	8b 44 24 f4          	mov    -0xc(%rsp),%eax
  401367:	69 c0 e5 ff 00 00    	imul   $0xffe5,%eax,%eax
  40136d:	89 44 24 f4          	mov    %eax,-0xc(%rsp)
  401371:	8b 44 24 d0          	mov    -0x30(%rsp),%eax
  401375:	69 c0 74 c2 00 00    	imul   $0xc274,%eax,%eax
  40137b:	89 44 24 d0          	mov    %eax,-0x30(%rsp)
  40137f:	8b 44 24 ec          	mov    -0x14(%rsp),%eax
  401383:	69 c0 04 7e 00 00    	imul   $0x7e04,%eax,%eax
  401389:	89 44 24 ec          	mov    %eax,-0x14(%rsp)
  40138d:	8b 44 24 f0          	mov    -0x10(%rsp),%eax
  401391:	69 c0 4b ed 00 00    	imul   $0xed4b,%eax,%eax
  401397:	89 44 24 f0          	mov    %eax,-0x10(%rsp)
  40139b:	8b 44 24 e8          	mov    -0x18(%rsp),%eax
  40139f:	69 c0 15 bf 00 00    	imul   $0xbf15,%eax,%eax
  4013a5:	89 44 24 e8          	mov    %eax,-0x18(%rsp)
  4013a9:	8b 44 24 d0          	mov    -0x30(%rsp),%eax
  4013ad:	69 c0 c2 83 00 00    	imul   $0x83c2,%eax,%eax
  4013b3:	89 44 24 d0          	mov    %eax,-0x30(%rsp)
  4013b7:	8b 44 24 d4          	mov    -0x2c(%rsp),%eax
  4013bb:	6b c0 42             	imul   $0x42,%eax,%eax
  4013be:	89 44 24 d4          	mov    %eax,-0x2c(%rsp)
  4013c2:	8b 44 24 e4          	mov    -0x1c(%rsp),%eax
  4013c6:	69 c0 6e d8 00 00    	imul   $0xd86e,%eax,%eax
  4013cc:	89 44 24 e4          	mov    %eax,-0x1c(%rsp)
  4013d0:	8b 44 24 f0          	mov    -0x10(%rsp),%eax
  4013d4:	69 c0 7d df 00 00    	imul   $0xdf7d,%eax,%eax
  4013da:	89 44 24 f0          	mov    %eax,-0x10(%rsp)
  4013de:	8b 44 24 e4          	mov    -0x1c(%rsp),%eax
  4013e2:	69 c0 fd 3d 00 00    	imul   $0x3dfd,%eax,%eax
  4013e8:	89 44 24 e4          	mov    %eax,-0x1c(%rsp)
  4013ec:	8b 44 24 dc          	mov    -0x24(%rsp),%eax
  4013f0:	69 c0 af 1c 00 00    	imul   $0x1caf,%eax,%eax
  4013f6:	89 44 24 dc          	mov    %eax,-0x24(%rsp)
  4013fa:	8b 44 24 f4          	mov    -0xc(%rsp),%eax
  4013fe:	69 c0 ce fc 00 00    	imul   $0xfcce,%eax,%eax
  401404:	89 44 24 f4          	mov    %eax,-0xc(%rsp)
  401408:	8b 44 24 d0          	mov    -0x30(%rsp),%eax
  40140c:	69 c0 fc 86 00 00    	imul   $0x86fc,%eax,%eax
  401412:	89 44 24 d0          	mov    %eax,-0x30(%rsp)
  401416:	8b 44 24 d0          	mov    -0x30(%rsp),%eax
  40141a:	69 c0 e7 95 00 00    	imul   $0x95e7,%eax,%eax
  401420:	89 44 24 d0          	mov    %eax,-0x30(%rsp)
  401424:	8b 44 24 d0          	mov    -0x30(%rsp),%eax
  401428:	69 c0 b1 29 00 00    	imul   $0x29b1,%eax,%eax
  40142e:	89 44 24 d0          	mov    %eax,-0x30(%rsp)
  401432:	8b 44 24 e8          	mov    -0x18(%rsp),%eax
  401436:	69 c0 de 61 00 00    	imul   $0x61de,%eax,%eax
  40143c:	89 44 24 e8          	mov    %eax,-0x18(%rsp)
  401440:	8b 44 24 e0          	mov    -0x20(%rsp),%eax
  401444:	69 c0 2e b8 00 00    	imul   $0xb82e,%eax,%eax
  40144a:	89 44 24 e0          	mov    %eax,-0x20(%rsp)
  40144e:	8b 44 24 e0          	mov    -0x20(%rsp),%eax
  401452:	69 c0 1f 5c 00 00    	imul   $0x5c1f,%eax,%eax
  401458:	89 44 24 e0          	mov    %eax,-0x20(%rsp)
  40145c:	8b 44 24 f0          	mov    -0x10(%rsp),%eax
  401460:	69 c0 ed 33 00 00    	imul   $0x33ed,%eax,%eax
  401466:	89 44 24 f0          	mov    %eax,-0x10(%rsp)
  40146a:	8b 44 24 f4          	mov    -0xc(%rsp),%eax
  40146e:	69 c0 06 7a 00 00    	imul   $0x7a06,%eax,%eax
  401474:	89 44 24 f4          	mov    %eax,-0xc(%rsp)
  401478:	8b 44 24 e0          	mov    -0x20(%rsp),%eax
  40147c:	69 c0 8e 0d 00 00    	imul   $0xd8e,%eax,%eax
  401482:	89 44 24 e0          	mov    %eax,-0x20(%rsp)
  401486:	8b 44 24 e0          	mov    -0x20(%rsp),%eax
  40148a:	69 c0 c5 4a 00 00    	imul   $0x4ac5,%eax,%eax
  401490:	89 44 24 e0          	mov    %eax,-0x20(%rsp)
  401494:	8b 44 24 ec          	mov    -0x14(%rsp),%eax
  401498:	69 c0 d7 34 00 00    	imul   $0x34d7,%eax,%eax
  40149e:	89 44 24 ec          	mov    %eax,-0x14(%rsp)
  4014a2:	8b 44 24 ec          	mov    -0x14(%rsp),%eax
  4014a6:	69 c0 93 ba 00 00    	imul   $0xba93,%eax,%eax
  4014ac:	89 44 24 ec          	mov    %eax,-0x14(%rsp)
  4014b0:	8b 44 24 d8          	mov    -0x28(%rsp),%eax
  4014b4:	69 c0 11 8e 00 00    	imul   $0x8e11,%eax,%eax
  4014ba:	89 44 24 d8          	mov    %eax,-0x28(%rsp)
  4014be:	8b 44 24 dc          	mov    -0x24(%rsp),%eax
  4014c2:	69 c0 d2 8a 00 00    	imul   $0x8ad2,%eax,%eax
  4014c8:	89 44 24 dc          	mov    %eax,-0x24(%rsp)
  4014cc:	8b 44 24 d0          	mov    -0x30(%rsp),%eax
  4014d0:	69 c0 70 5f 00 00    	imul   $0x5f70,%eax,%eax
  4014d6:	89 44 24 d0          	mov    %eax,-0x30(%rsp)
  4014da:	8b 44 24 e8          	mov    -0x18(%rsp),%eax
  4014de:	69 c0 58 fd 00 00    	imul   $0xfd58,%eax,%eax
  4014e4:	89 44 24 e8          	mov    %eax,-0x18(%rsp)
  4014e8:	8b 44 24 d0          	mov    -0x30(%rsp),%eax
  4014ec:	69 c0 fa fa 00 00    	imul   $0xfafa,%eax,%eax
  4014f2:	89 44 24 d0          	mov    %eax,-0x30(%rsp)
  4014f6:	8b 44 24 d4          	mov    -0x2c(%rsp),%eax
  4014fa:	69 c0 ff 21 00 00    	imul   $0x21ff,%eax,%eax
  401500:	89 44 24 d4          	mov    %eax,-0x2c(%rsp)
  401504:	8b 44 24 f4          	mov    -0xc(%rsp),%eax
  401508:	69 c0 de b7 00 00    	imul   $0xb7de,%eax,%eax
  40150e:	89 44 24 f4          	mov    %eax,-0xc(%rsp)
  401512:	8b 44 24 d8          	mov    -0x28(%rsp),%eax
  401516:	69 c0 41 4e 00 00    	imul   $0x4e41,%eax,%eax
  40151c:	89 44 24 d8          	mov    %eax,-0x28(%rsp)
  401520:	8b 44 24 e0          	mov    -0x20(%rsp),%eax
  401524:	69 c0 2f a8 00 00    	imul   $0xa82f,%eax,%eax
  40152a:	89 44 24 e0          	mov    %eax,-0x20(%rsp)
  40152e:	8b 44 24 f4          	mov    -0xc(%rsp),%eax
  401532:	69 c0 3f a6 00 00    	imul   $0xa63f,%eax,%eax
  401538:	89 44 24 f4          	mov    %eax,-0xc(%rsp)
  40153c:	8b 44 24 e4          	mov    -0x1c(%rsp),%eax
  401540:	69 c0 cb f3 00 00    	imul   $0xf3cb,%eax,%eax
  401546:	89 44 24 e4          	mov    %eax,-0x1c(%rsp)
  40154a:	8b 44 24 dc          	mov    -0x24(%rsp),%eax
  40154e:	69 c0 20 cf 00 00    	imul   $0xcf20,%eax,%eax
  401554:	89 44 24 dc          	mov    %eax,-0x24(%rsp)
  401558:	8b 44 24 dc          	mov    -0x24(%rsp),%eax
  40155c:	69 c0 0e 1e 00 00    	imul   $0x1e0e,%eax,%eax
  401562:	89 44 24 dc          	mov    %eax,-0x24(%rsp)
  401566:	8b 44 24 ec          	mov    -0x14(%rsp),%eax
  40156a:	69 c0 2a 0f 00 00    	imul   $0xf2a,%eax,%eax
  401570:	89 44 24 ec          	mov    %eax,-0x14(%rsp)
  401574:	8b 44 24 d4          	mov    -0x2c(%rsp),%eax
  401578:	69 c0 18 3d 00 00    	imul   $0x3d18,%eax,%eax
  40157e:	89 44 24 d4          	mov    %eax,-0x2c(%rsp)
  401582:	8b 44 24 d0          	mov    -0x30(%rsp),%eax
  401586:	69 c0 3a 67 00 00    	imul   $0x673a,%eax,%eax
  40158c:	89 44 24 d0          	mov    %eax,-0x30(%rsp)
  401590:	8b 44 24 d0          	mov    -0x30(%rsp),%eax
  401594:	69 c0 4e c2 00 00    	imul   $0xc24e,%eax,%eax
  40159a:	89 44 24 d0          	mov    %eax,-0x30(%rsp)
  40159e:	8b 44 24 d8          	mov    -0x28(%rsp),%eax
  4015a2:	69 c0 eb 75 00 00    	imul   $0x75eb,%eax,%eax
  4015a8:	89 44 24 d8          	mov    %eax,-0x28(%rsp)
  4015ac:	8b 44 24 f4          	mov    -0xc(%rsp),%eax
  4015b0:	69 c0 ac 79 00 00    	imul   $0x79ac,%eax,%eax
  4015b6:	89 44 24 f4          	mov    %eax,-0xc(%rsp)
  4015ba:	8b 44 24 e8          	mov    -0x18(%rsp),%eax
  4015be:	69 c0 2a 08 00 00    	imul   $0x82a,%eax,%eax
  4015c4:	89 44 24 e8          	mov    %eax,-0x18(%rsp)
  4015c8:	8b 44 24 ec          	mov    -0x14(%rsp),%eax
  4015cc:	69 c0 83 06 00 00    	imul   $0x683,%eax,%eax
  4015d2:	89 44 24 ec          	mov    %eax,-0x14(%rsp)
  4015d6:	8b 44 24 d8          	mov    -0x28(%rsp),%eax
  4015da:	69 c0 51 99 00 00    	imul   $0x9951,%eax,%eax
  4015e0:	89 44 24 d8          	mov    %eax,-0x28(%rsp)
  4015e4:	8b 44 24 e4          	mov    -0x1c(%rsp),%eax
  4015e8:	69 c0 06 ae 00 00    	imul   $0xae06,%eax,%eax
  4015ee:	89 44 24 e4          	mov    %eax,-0x1c(%rsp)
  4015f2:	8b 44 24 e0          	mov    -0x20(%rsp),%eax
  4015f6:	69 c0 6e 2e 00 00    	imul   $0x2e6e,%eax,%eax
  4015fc:	89 44 24 e0          	mov    %eax,-0x20(%rsp)
  401600:	8b 44 24 ec          	mov    -0x14(%rsp),%eax
  401604:	69 c0 f3 91 00 00    	imul   $0x91f3,%eax,%eax
  40160a:	89 44 24 ec          	mov    %eax,-0x14(%rsp)
  40160e:	8b 44 24 f0          	mov    -0x10(%rsp),%eax
  401612:	69 c0 53 32 00 00    	imul   $0x3253,%eax,%eax
  401618:	89 44 24 f0          	mov    %eax,-0x10(%rsp)
  40161c:	8b 44 24 e4          	mov    -0x1c(%rsp),%eax
  401620:	69 c0 f3 f4 00 00    	imul   $0xf4f3,%eax,%eax
  401626:	89 44 24 e4          	mov    %eax,-0x1c(%rsp)
  40162a:	8b 44 24 e4          	mov    -0x1c(%rsp),%eax
  40162e:	69 c0 18 87 00 00    	imul   $0x8718,%eax,%eax
  401634:	89 44 24 e4          	mov    %eax,-0x1c(%rsp)
  401638:	8b 44 24 d8          	mov    -0x28(%rsp),%eax
  40163c:	69 c0 58 1b 00 00    	imul   $0x1b58,%eax,%eax
  401642:	89 44 24 d8          	mov    %eax,-0x28(%rsp)
  401646:	8b 44 24 d0          	mov    -0x30(%rsp),%eax
  40164a:	69 c0 e6 65 00 00    	imul   $0x65e6,%eax,%eax
  401650:	89 44 24 d0          	mov    %eax,-0x30(%rsp)
  401654:	8b 44 24 d4          	mov    -0x2c(%rsp),%eax
  401658:	69 c0 ff 5f 00 00    	imul   $0x5fff,%eax,%eax
  40165e:	89 44 24 d4          	mov    %eax,-0x2c(%rsp)
  401662:	8b 44 24 f4          	mov    -0xc(%rsp),%eax
  401666:	69 c0 9a 23 00 00    	imul   $0x239a,%eax,%eax
  40166c:	89 44 24 f4          	mov    %eax,-0xc(%rsp)
  401670:	8b 44 24 e4          	mov    -0x1c(%rsp),%eax
  401674:	69 c0 2d bf 00 00    	imul   $0xbf2d,%eax,%eax
  40167a:	89 44 24 e4          	mov    %eax,-0x1c(%rsp)
  40167e:	8b 44 24 e8          	mov    -0x18(%rsp),%eax
  401682:	69 c0 0b 44 00 00    	imul   $0x440b,%eax,%eax
  401688:	89 44 24 e8          	mov    %eax,-0x18(%rsp)
  40168c:	8b 44 24 e0          	mov    -0x20(%rsp),%eax
  401690:	69 c0 c9 0c 00 00    	imul   $0xcc9,%eax,%eax
  401696:	89 44 24 e0          	mov    %eax,-0x20(%rsp)
  40169a:	8b 44 24 e8          	mov    -0x18(%rsp),%eax
  40169e:	69 c0 80 ad 00 00    	imul   $0xad80,%eax,%eax
  4016a4:	89 44 24 e8          	mov    %eax,-0x18(%rsp)
  4016a8:	8b 44 24 d8          	mov    -0x28(%rsp),%eax
  4016ac:	69 c0 5f 76 00 00    	imul   $0x765f,%eax,%eax
  4016b2:	89 44 24 d8          	mov    %eax,-0x28(%rsp)
  4016b6:	8b 44 24 d0          	mov    -0x30(%rsp),%eax
  4016ba:	69 c0 ae d1 00 00    	imul   $0xd1ae,%eax,%eax
  4016c0:	89 44 24 d0          	mov    %eax,-0x30(%rsp)
  4016c4:	8b 44 24 ec          	mov    -0x14(%rsp),%eax
  4016c8:	69 c0 65 2e 00 00    	imul   $0x2e65,%eax,%eax
  4016ce:	89 44 24 ec          	mov    %eax,-0x14(%rsp)
  4016d2:	ba 00 00 00 00       	mov    $0x0,%edx
  4016d7:	b8 00 00 00 00       	mov    $0x0,%eax
  4016dc:	eb 0b                	jmp    4016e9 <scramble+0x475>
  4016de:	89 d1                	mov    %edx,%ecx
  4016e0:	8b 4c 8c d0          	mov    -0x30(%rsp,%rcx,4),%ecx
  4016e4:	01 c8                	add    %ecx,%eax
  4016e6:	83 c2 01             	add    $0x1,%edx
  4016e9:	83 fa 09             	cmp    $0x9,%edx
  4016ec:	76 f0                	jbe    4016de <scramble+0x46a>
  4016ee:	f3 c3                	repz retq 

00000000004016f0 <getbuf>:
  4016f0:	48 83 ec 28          	sub    $0x28,%rsp
  4016f4:	48 89 e7             	mov    %rsp,%rdi
  4016f7:	e8 44 02 00 00       	callq  401940 <Gets>
  4016fc:	b8 01 00 00 00       	mov    $0x1,%eax
  401701:	48 83 c4 28          	add    $0x28,%rsp
  401705:	c3                   	retq   

0000000000401706 <touch1>:
  401706:	48 83 ec 08          	sub    $0x8,%rsp
  40170a:	c7 05 e8 2d 20 00 01 	movl   $0x1,0x202de8(%rip)        # 6044fc <vlevel>
  401711:	00 00 00 
  401714:	48 8d 3d 9b 17 00 00 	lea    0x179b(%rip),%rdi        # 402eb6 <_IO_stdin_used+0x2a6>
  40171b:	e8 10 f5 ff ff       	callq  400c30 <puts@plt>
  401720:	bf 01 00 00 00       	mov    $0x1,%edi
  401725:	e8 2d 04 00 00       	callq  401b57 <validate>
  40172a:	bf 00 00 00 00       	mov    $0x0,%edi
  40172f:	e8 7c f6 ff ff       	callq  400db0 <exit@plt>

0000000000401734 <touch2>:
  401734:	48 83 ec 08          	sub    $0x8,%rsp
  401738:	89 fe                	mov    %edi,%esi
  40173a:	c7 05 b8 2d 20 00 02 	movl   $0x2,0x202db8(%rip)        # 6044fc <vlevel>
  401741:	00 00 00 
  401744:	39 3d ba 2d 20 00    	cmp    %edi,0x202dba(%rip)        # 604504 <cookie>
  40174a:	74 25                	je     401771 <touch2+0x3d>
  40174c:	48 8d 3d ad 17 00 00 	lea    0x17ad(%rip),%rdi        # 402f00 <_IO_stdin_used+0x2f0>
  401753:	b8 00 00 00 00       	mov    $0x0,%eax
  401758:	e8 03 f5 ff ff       	callq  400c60 <printf@plt>
  40175d:	bf 02 00 00 00       	mov    $0x2,%edi
  401762:	e8 ae 04 00 00       	callq  401c15 <fail>
  401767:	bf 00 00 00 00       	mov    $0x0,%edi
  40176c:	e8 3f f6 ff ff       	callq  400db0 <exit@plt>
  401771:	48 8d 3d 60 17 00 00 	lea    0x1760(%rip),%rdi        # 402ed8 <_IO_stdin_used+0x2c8>
  401778:	b8 00 00 00 00       	mov    $0x0,%eax
  40177d:	e8 de f4 ff ff       	callq  400c60 <printf@plt>
  401782:	bf 02 00 00 00       	mov    $0x2,%edi
  401787:	e8 cb 03 00 00       	callq  401b57 <validate>
  40178c:	eb d9                	jmp    401767 <touch2+0x33>

000000000040178e <hexmatch>:
  40178e:	41 54                	push   %r12
  401790:	55                   	push   %rbp
  401791:	53                   	push   %rbx
  401792:	48 83 ec 70          	sub    $0x70,%rsp
  401796:	89 fd                	mov    %edi,%ebp
  401798:	48 89 f3             	mov    %rsi,%rbx
  40179b:	e8 70 f5 ff ff       	callq  400d10 <random@plt>
  4017a0:	48 89 c1             	mov    %rax,%rcx
  4017a3:	48 ba 0b d7 a3 70 3d 	movabs $0xa3d70a3d70a3d70b,%rdx
  4017aa:	0a d7 a3 
  4017ad:	48 f7 ea             	imul   %rdx
  4017b0:	48 01 ca             	add    %rcx,%rdx
  4017b3:	48 c1 fa 06          	sar    $0x6,%rdx
  4017b7:	48 89 c8             	mov    %rcx,%rax
  4017ba:	48 c1 f8 3f          	sar    $0x3f,%rax
  4017be:	48 29 c2             	sub    %rax,%rdx
  4017c1:	48 8d 04 92          	lea    (%rdx,%rdx,4),%rax
  4017c5:	48 8d 14 80          	lea    (%rax,%rax,4),%rdx
  4017c9:	48 8d 04 95 00 00 00 	lea    0x0(,%rdx,4),%rax
  4017d0:	00 
  4017d1:	48 29 c1             	sub    %rax,%rcx
  4017d4:	4c 8d 24 0c          	lea    (%rsp,%rcx,1),%r12
  4017d8:	89 ea                	mov    %ebp,%edx
  4017da:	48 8d 35 f2 16 00 00 	lea    0x16f2(%rip),%rsi        # 402ed3 <_IO_stdin_used+0x2c3>
  4017e1:	4c 89 e7             	mov    %r12,%rdi
  4017e4:	b8 00 00 00 00       	mov    $0x0,%eax
  4017e9:	e8 b2 f5 ff ff       	callq  400da0 <sprintf@plt>
  4017ee:	ba 09 00 00 00       	mov    $0x9,%edx
  4017f3:	4c 89 e6             	mov    %r12,%rsi
  4017f6:	48 89 df             	mov    %rbx,%rdi
  4017f9:	e8 12 f4 ff ff       	callq  400c10 <strncmp@plt>
  4017fe:	85 c0                	test   %eax,%eax
  401800:	0f 94 c0             	sete   %al
  401803:	0f b6 c0             	movzbl %al,%eax
  401806:	48 83 c4 70          	add    $0x70,%rsp
  40180a:	5b                   	pop    %rbx
  40180b:	5d                   	pop    %rbp
  40180c:	41 5c                	pop    %r12
  40180e:	c3                   	retq   

000000000040180f <touch3>:
  40180f:	53                   	push   %rbx
  401810:	48 89 fb             	mov    %rdi,%rbx
  401813:	c7 05 df 2c 20 00 03 	movl   $0x3,0x202cdf(%rip)        # 6044fc <vlevel>
  40181a:	00 00 00 
  40181d:	48 89 fe             	mov    %rdi,%rsi
  401820:	8b 3d de 2c 20 00    	mov    0x202cde(%rip),%edi        # 604504 <cookie>
  401826:	e8 63 ff ff ff       	callq  40178e <hexmatch>
  40182b:	85 c0                	test   %eax,%eax
  40182d:	74 28                	je     401857 <touch3+0x48>
  40182f:	48 89 de             	mov    %rbx,%rsi
  401832:	48 8d 3d ef 16 00 00 	lea    0x16ef(%rip),%rdi        # 402f28 <_IO_stdin_used+0x318>
  401839:	b8 00 00 00 00       	mov    $0x0,%eax
  40183e:	e8 1d f4 ff ff       	callq  400c60 <printf@plt>
  401843:	bf 03 00 00 00       	mov    $0x3,%edi
  401848:	e8 0a 03 00 00       	callq  401b57 <validate>
  40184d:	bf 00 00 00 00       	mov    $0x0,%edi
  401852:	e8 59 f5 ff ff       	callq  400db0 <exit@plt>
  401857:	48 89 de             	mov    %rbx,%rsi
  40185a:	48 8d 3d ef 16 00 00 	lea    0x16ef(%rip),%rdi        # 402f50 <_IO_stdin_used+0x340>
  401861:	b8 00 00 00 00       	mov    $0x0,%eax
  401866:	e8 f5 f3 ff ff       	callq  400c60 <printf@plt>
  40186b:	bf 03 00 00 00       	mov    $0x3,%edi
  401870:	e8 a0 03 00 00       	callq  401c15 <fail>
  401875:	eb d6                	jmp    40184d <touch3+0x3e>

0000000000401877 <test>:
  401877:	48 83 ec 08          	sub    $0x8,%rsp
  40187b:	b8 00 00 00 00       	mov    $0x0,%eax
  401880:	e8 6b fe ff ff       	callq  4016f0 <getbuf>
  401885:	89 c6                	mov    %eax,%esi
  401887:	48 8d 3d ea 16 00 00 	lea    0x16ea(%rip),%rdi        # 402f78 <_IO_stdin_used+0x368>
  40188e:	b8 00 00 00 00       	mov    $0x0,%eax
  401893:	e8 c8 f3 ff ff       	callq  400c60 <printf@plt>
  401898:	48 83 c4 08          	add    $0x8,%rsp
  40189c:	c3                   	retq   

000000000040189d <save_char>:
  40189d:	8b 05 81 38 20 00    	mov    0x203881(%rip),%eax        # 605124 <gets_cnt>
  4018a3:	3d ff 03 00 00       	cmp    $0x3ff,%eax
  4018a8:	7f 4a                	jg     4018f4 <save_char+0x57>
  4018aa:	8d 14 40             	lea    (%rax,%rax,2),%edx
  4018ad:	89 f9                	mov    %edi,%ecx
  4018af:	c0 e9 04             	shr    $0x4,%cl
  4018b2:	4c 8d 05 e7 19 00 00 	lea    0x19e7(%rip),%r8        # 4032a0 <trans_char>
  4018b9:	83 e1 0f             	and    $0xf,%ecx
  4018bc:	45 0f b6 0c 08       	movzbl (%r8,%rcx,1),%r9d
  4018c1:	48 8d 0d 58 2c 20 00 	lea    0x202c58(%rip),%rcx        # 604520 <gets_buf>
  4018c8:	48 63 f2             	movslq %edx,%rsi
  4018cb:	44 88 0c 31          	mov    %r9b,(%rcx,%rsi,1)
  4018cf:	8d 72 01             	lea    0x1(%rdx),%esi
  4018d2:	83 e7 0f             	and    $0xf,%edi
  4018d5:	41 0f b6 3c 38       	movzbl (%r8,%rdi,1),%edi
  4018da:	48 63 f6             	movslq %esi,%rsi
  4018dd:	40 88 3c 31          	mov    %dil,(%rcx,%rsi,1)
  4018e1:	83 c2 02             	add    $0x2,%edx
  4018e4:	48 63 d2             	movslq %edx,%rdx
  4018e7:	c6 04 11 20          	movb   $0x20,(%rcx,%rdx,1)
  4018eb:	83 c0 01             	add    $0x1,%eax
  4018ee:	89 05 30 38 20 00    	mov    %eax,0x203830(%rip)        # 605124 <gets_cnt>
  4018f4:	f3 c3                	repz retq 

00000000004018f6 <save_term>:
  4018f6:	8b 05 28 38 20 00    	mov    0x203828(%rip),%eax        # 605124 <gets_cnt>
  4018fc:	8d 04 40             	lea    (%rax,%rax,2),%eax
  4018ff:	48 98                	cltq   
  401901:	48 8d 15 18 2c 20 00 	lea    0x202c18(%rip),%rdx        # 604520 <gets_buf>
  401908:	c6 04 02 00          	movb   $0x0,(%rdx,%rax,1)
  40190c:	c3                   	retq   

000000000040190d <check_fail>:
  40190d:	48 83 ec 08          	sub    $0x8,%rsp
  401911:	0f be 35 10 38 20 00 	movsbl 0x203810(%rip),%esi        # 605128 <target_prefix>
  401918:	48 8d 0d 01 2c 20 00 	lea    0x202c01(%rip),%rcx        # 604520 <gets_buf>
  40191f:	8b 15 d3 2b 20 00    	mov    0x202bd3(%rip),%edx        # 6044f8 <check_level>
  401925:	48 8d 3d 6f 16 00 00 	lea    0x166f(%rip),%rdi        # 402f9b <_IO_stdin_used+0x38b>
  40192c:	b8 00 00 00 00       	mov    $0x0,%eax
  401931:	e8 2a f3 ff ff       	callq  400c60 <printf@plt>
  401936:	bf 01 00 00 00       	mov    $0x1,%edi
  40193b:	e8 70 f4 ff ff       	callq  400db0 <exit@plt>

0000000000401940 <Gets>:
  401940:	41 54                	push   %r12
  401942:	55                   	push   %rbp
  401943:	53                   	push   %rbx
  401944:	49 89 fc             	mov    %rdi,%r12
  401947:	c7 05 d3 37 20 00 00 	movl   $0x0,0x2037d3(%rip)        # 605124 <gets_cnt>
  40194e:	00 00 00 
  401951:	48 89 fb             	mov    %rdi,%rbx
  401954:	eb 11                	jmp    401967 <Gets+0x27>
  401956:	48 8d 6b 01          	lea    0x1(%rbx),%rbp
  40195a:	88 03                	mov    %al,(%rbx)
  40195c:	0f b6 f8             	movzbl %al,%edi
  40195f:	e8 39 ff ff ff       	callq  40189d <save_char>
  401964:	48 89 eb             	mov    %rbp,%rbx
  401967:	48 8b 3d 82 2b 20 00 	mov    0x202b82(%rip),%rdi        # 6044f0 <infile>
  40196e:	e8 ad f3 ff ff       	callq  400d20 <_IO_getc@plt>
  401973:	83 f8 ff             	cmp    $0xffffffff,%eax
  401976:	74 05                	je     40197d <Gets+0x3d>
  401978:	83 f8 0a             	cmp    $0xa,%eax
  40197b:	75 d9                	jne    401956 <Gets+0x16>
  40197d:	c6 03 00             	movb   $0x0,(%rbx)
  401980:	b8 00 00 00 00       	mov    $0x0,%eax
  401985:	e8 6c ff ff ff       	callq  4018f6 <save_term>
  40198a:	4c 89 e0             	mov    %r12,%rax
  40198d:	5b                   	pop    %rbx
  40198e:	5d                   	pop    %rbp
  40198f:	41 5c                	pop    %r12
  401991:	c3                   	retq   

0000000000401992 <notify_server>:
  401992:	83 3d 6f 2b 20 00 00 	cmpl   $0x0,0x202b6f(%rip)        # 604508 <is_checker>
  401999:	0f 85 de 00 00 00    	jne    401a7d <notify_server+0xeb>
  40199f:	55                   	push   %rbp
  4019a0:	53                   	push   %rbx
  4019a1:	48 81 ec 08 40 00 00 	sub    $0x4008,%rsp
  4019a8:	89 fb                	mov    %edi,%ebx
  4019aa:	8b 05 74 37 20 00    	mov    0x203774(%rip),%eax        # 605124 <gets_cnt>
  4019b0:	83 c0 64             	add    $0x64,%eax
  4019b3:	3d 00 20 00 00       	cmp    $0x2000,%eax
  4019b8:	0f 8f c1 00 00 00    	jg     401a7f <notify_server+0xed>
  4019be:	44 0f be 0d 62 37 20 	movsbl 0x203762(%rip),%r9d        # 605128 <target_prefix>
  4019c5:	00 
  4019c6:	83 3d bb 2a 20 00 00 	cmpl   $0x0,0x202abb(%rip)        # 604488 <notify>
  4019cd:	0f 84 c7 00 00 00    	je     401a9a <notify_server+0x108>
  4019d3:	44 8b 05 26 2b 20 00 	mov    0x202b26(%rip),%r8d        # 604500 <authkey>
  4019da:	85 db                	test   %ebx,%ebx
  4019dc:	0f 84 c3 00 00 00    	je     401aa5 <notify_server+0x113>
  4019e2:	48 8d 2d c8 15 00 00 	lea    0x15c8(%rip),%rbp        # 402fb1 <_IO_stdin_used+0x3a1>
  4019e9:	48 8d bc 24 00 20 00 	lea    0x2000(%rsp),%rdi
  4019f0:	00 
  4019f1:	48 8d 05 28 2b 20 00 	lea    0x202b28(%rip),%rax        # 604520 <gets_buf>
  4019f8:	50                   	push   %rax
  4019f9:	56                   	push   %rsi
  4019fa:	48 89 e9             	mov    %rbp,%rcx
  4019fd:	8b 15 2d 27 20 00    	mov    0x20272d(%rip),%edx        # 604130 <target_id>
  401a03:	48 8d 35 b1 15 00 00 	lea    0x15b1(%rip),%rsi        # 402fbb <_IO_stdin_used+0x3ab>
  401a0a:	b8 00 00 00 00       	mov    $0x0,%eax
  401a0f:	e8 8c f3 ff ff       	callq  400da0 <sprintf@plt>
  401a14:	48 83 c4 10          	add    $0x10,%rsp
  401a18:	83 3d 69 2a 20 00 00 	cmpl   $0x0,0x202a69(%rip)        # 604488 <notify>
  401a1f:	0f 84 b8 00 00 00    	je     401add <notify_server+0x14b>
  401a25:	85 db                	test   %ebx,%ebx
  401a27:	0f 84 a2 00 00 00    	je     401acf <notify_server+0x13d>
  401a2d:	48 8d 8c 24 00 20 00 	lea    0x2000(%rsp),%rcx
  401a34:	00 
  401a35:	49 89 e1             	mov    %rsp,%r9
  401a38:	41 b8 00 00 00 00    	mov    $0x0,%r8d
  401a3e:	48 8b 15 03 27 20 00 	mov    0x202703(%rip),%rdx        # 604148 <lab>
  401a45:	48 8b 35 04 27 20 00 	mov    0x202704(%rip),%rsi        # 604150 <course>
  401a4c:	48 8b 3d ed 26 20 00 	mov    0x2026ed(%rip),%rdi        # 604140 <user_id>
  401a53:	e8 6e 10 00 00       	callq  402ac6 <driver_post>
  401a58:	85 c0                	test   %eax,%eax
  401a5a:	78 55                	js     401ab1 <notify_server+0x11f>
  401a5c:	48 8d 3d 9d 16 00 00 	lea    0x169d(%rip),%rdi        # 403100 <_IO_stdin_used+0x4f0>
  401a63:	e8 c8 f1 ff ff       	callq  400c30 <puts@plt>
  401a68:	48 8d 3d 74 15 00 00 	lea    0x1574(%rip),%rdi        # 402fe3 <_IO_stdin_used+0x3d3>
  401a6f:	e8 bc f1 ff ff       	callq  400c30 <puts@plt>
  401a74:	48 81 c4 08 40 00 00 	add    $0x4008,%rsp
  401a7b:	5b                   	pop    %rbx
  401a7c:	5d                   	pop    %rbp
  401a7d:	f3 c3                	repz retq 
  401a7f:	48 8d 3d 4a 16 00 00 	lea    0x164a(%rip),%rdi        # 4030d0 <_IO_stdin_used+0x4c0>
  401a86:	b8 00 00 00 00       	mov    $0x0,%eax
  401a8b:	e8 d0 f1 ff ff       	callq  400c60 <printf@plt>
  401a90:	bf 01 00 00 00       	mov    $0x1,%edi
  401a95:	e8 16 f3 ff ff       	callq  400db0 <exit@plt>
  401a9a:	41 b8 ff ff ff ff    	mov    $0xffffffff,%r8d
  401aa0:	e9 35 ff ff ff       	jmpq   4019da <notify_server+0x48>
  401aa5:	48 8d 2d 0a 15 00 00 	lea    0x150a(%rip),%rbp        # 402fb6 <_IO_stdin_used+0x3a6>
  401aac:	e9 38 ff ff ff       	jmpq   4019e9 <notify_server+0x57>
  401ab1:	48 89 e6             	mov    %rsp,%rsi
  401ab4:	48 8d 3d 1c 15 00 00 	lea    0x151c(%rip),%rdi        # 402fd7 <_IO_stdin_used+0x3c7>
  401abb:	b8 00 00 00 00       	mov    $0x0,%eax
  401ac0:	e8 9b f1 ff ff       	callq  400c60 <printf@plt>
  401ac5:	bf 01 00 00 00       	mov    $0x1,%edi
  401aca:	e8 e1 f2 ff ff       	callq  400db0 <exit@plt>
  401acf:	48 8d 3d 17 15 00 00 	lea    0x1517(%rip),%rdi        # 402fed <_IO_stdin_used+0x3dd>
  401ad6:	e8 55 f1 ff ff       	callq  400c30 <puts@plt>
  401adb:	eb 97                	jmp    401a74 <notify_server+0xe2>
  401add:	48 89 ee             	mov    %rbp,%rsi
  401ae0:	48 8d 3d 51 16 00 00 	lea    0x1651(%rip),%rdi        # 403138 <_IO_stdin_used+0x528>
  401ae7:	b8 00 00 00 00       	mov    $0x0,%eax
  401aec:	e8 6f f1 ff ff       	callq  400c60 <printf@plt>
  401af1:	48 8b 35 48 26 20 00 	mov    0x202648(%rip),%rsi        # 604140 <user_id>
  401af8:	48 8d 3d f5 14 00 00 	lea    0x14f5(%rip),%rdi        # 402ff4 <_IO_stdin_used+0x3e4>
  401aff:	b8 00 00 00 00       	mov    $0x0,%eax
  401b04:	e8 57 f1 ff ff       	callq  400c60 <printf@plt>
  401b09:	48 8b 35 40 26 20 00 	mov    0x202640(%rip),%rsi        # 604150 <course>
  401b10:	48 8d 3d ea 14 00 00 	lea    0x14ea(%rip),%rdi        # 403001 <_IO_stdin_used+0x3f1>
  401b17:	b8 00 00 00 00       	mov    $0x0,%eax
  401b1c:	e8 3f f1 ff ff       	callq  400c60 <printf@plt>
  401b21:	48 8b 35 20 26 20 00 	mov    0x202620(%rip),%rsi        # 604148 <lab>
  401b28:	48 8d 3d de 14 00 00 	lea    0x14de(%rip),%rdi        # 40300d <_IO_stdin_used+0x3fd>
  401b2f:	b8 00 00 00 00       	mov    $0x0,%eax
  401b34:	e8 27 f1 ff ff       	callq  400c60 <printf@plt>
  401b39:	48 8d b4 24 00 20 00 	lea    0x2000(%rsp),%rsi
  401b40:	00 
  401b41:	48 8d 3d ce 14 00 00 	lea    0x14ce(%rip),%rdi        # 403016 <_IO_stdin_used+0x406>
  401b48:	b8 00 00 00 00       	mov    $0x0,%eax
  401b4d:	e8 0e f1 ff ff       	callq  400c60 <printf@plt>
  401b52:	e9 1d ff ff ff       	jmpq   401a74 <notify_server+0xe2>

0000000000401b57 <validate>:
  401b57:	53                   	push   %rbx
  401b58:	89 fb                	mov    %edi,%ebx
  401b5a:	83 3d a7 29 20 00 00 	cmpl   $0x0,0x2029a7(%rip)        # 604508 <is_checker>
  401b61:	74 68                	je     401bcb <validate+0x74>
  401b63:	39 3d 93 29 20 00    	cmp    %edi,0x202993(%rip)        # 6044fc <vlevel>
  401b69:	75 2d                	jne    401b98 <validate+0x41>
  401b6b:	8b 35 87 29 20 00    	mov    0x202987(%rip),%esi        # 6044f8 <check_level>
  401b71:	39 f7                	cmp    %esi,%edi
  401b73:	75 39                	jne    401bae <validate+0x57>
  401b75:	0f be 35 ac 35 20 00 	movsbl 0x2035ac(%rip),%esi        # 605128 <target_prefix>
  401b7c:	48 8d 0d 9d 29 20 00 	lea    0x20299d(%rip),%rcx        # 604520 <gets_buf>
  401b83:	89 fa                	mov    %edi,%edx
  401b85:	48 8d 3d b4 14 00 00 	lea    0x14b4(%rip),%rdi        # 403040 <_IO_stdin_used+0x430>
  401b8c:	b8 00 00 00 00       	mov    $0x0,%eax
  401b91:	e8 ca f0 ff ff       	callq  400c60 <printf@plt>
  401b96:	5b                   	pop    %rbx
  401b97:	c3                   	retq   
  401b98:	48 8d 3d 83 14 00 00 	lea    0x1483(%rip),%rdi        # 403022 <_IO_stdin_used+0x412>
  401b9f:	e8 8c f0 ff ff       	callq  400c30 <puts@plt>
  401ba4:	b8 00 00 00 00       	mov    $0x0,%eax
  401ba9:	e8 5f fd ff ff       	callq  40190d <check_fail>
  401bae:	89 fa                	mov    %edi,%edx
  401bb0:	48 8d 3d a9 15 00 00 	lea    0x15a9(%rip),%rdi        # 403160 <_IO_stdin_used+0x550>
  401bb7:	b8 00 00 00 00       	mov    $0x0,%eax
  401bbc:	e8 9f f0 ff ff       	callq  400c60 <printf@plt>
  401bc1:	b8 00 00 00 00       	mov    $0x0,%eax
  401bc6:	e8 42 fd ff ff       	callq  40190d <check_fail>
  401bcb:	3b 3d 2b 29 20 00    	cmp    0x20292b(%rip),%edi        # 6044fc <vlevel>
  401bd1:	74 1a                	je     401bed <validate+0x96>
  401bd3:	48 8d 3d 48 14 00 00 	lea    0x1448(%rip),%rdi        # 403022 <_IO_stdin_used+0x412>
  401bda:	e8 51 f0 ff ff       	callq  400c30 <puts@plt>
  401bdf:	89 de                	mov    %ebx,%esi
  401be1:	bf 00 00 00 00       	mov    $0x0,%edi
  401be6:	e8 a7 fd ff ff       	callq  401992 <notify_server>
  401beb:	eb a9                	jmp    401b96 <validate+0x3f>
  401bed:	0f be 15 34 35 20 00 	movsbl 0x203534(%rip),%edx        # 605128 <target_prefix>
  401bf4:	89 fe                	mov    %edi,%esi
  401bf6:	48 8d 3d 8b 15 00 00 	lea    0x158b(%rip),%rdi        # 403188 <_IO_stdin_used+0x578>
  401bfd:	b8 00 00 00 00       	mov    $0x0,%eax
  401c02:	e8 59 f0 ff ff       	callq  400c60 <printf@plt>
  401c07:	89 de                	mov    %ebx,%esi
  401c09:	bf 01 00 00 00       	mov    $0x1,%edi
  401c0e:	e8 7f fd ff ff       	callq  401992 <notify_server>
  401c13:	eb 81                	jmp    401b96 <validate+0x3f>

0000000000401c15 <fail>:
  401c15:	48 83 ec 08          	sub    $0x8,%rsp
  401c19:	83 3d e8 28 20 00 00 	cmpl   $0x0,0x2028e8(%rip)        # 604508 <is_checker>
  401c20:	75 11                	jne    401c33 <fail+0x1e>
  401c22:	89 fe                	mov    %edi,%esi
  401c24:	bf 00 00 00 00       	mov    $0x0,%edi
  401c29:	e8 64 fd ff ff       	callq  401992 <notify_server>
  401c2e:	48 83 c4 08          	add    $0x8,%rsp
  401c32:	c3                   	retq   
  401c33:	b8 00 00 00 00       	mov    $0x0,%eax
  401c38:	e8 d0 fc ff ff       	callq  40190d <check_fail>

0000000000401c3d <bushandler>:
  401c3d:	48 83 ec 08          	sub    $0x8,%rsp
  401c41:	83 3d c0 28 20 00 00 	cmpl   $0x0,0x2028c0(%rip)        # 604508 <is_checker>
  401c48:	74 16                	je     401c60 <bushandler+0x23>
  401c4a:	48 8d 3d 04 14 00 00 	lea    0x1404(%rip),%rdi        # 403055 <_IO_stdin_used+0x445>
  401c51:	e8 da ef ff ff       	callq  400c30 <puts@plt>
  401c56:	b8 00 00 00 00       	mov    $0x0,%eax
  401c5b:	e8 ad fc ff ff       	callq  40190d <check_fail>
  401c60:	48 8d 3d 59 15 00 00 	lea    0x1559(%rip),%rdi        # 4031c0 <_IO_stdin_used+0x5b0>
  401c67:	e8 c4 ef ff ff       	callq  400c30 <puts@plt>
  401c6c:	48 8d 3d ec 13 00 00 	lea    0x13ec(%rip),%rdi        # 40305f <_IO_stdin_used+0x44f>
  401c73:	e8 b8 ef ff ff       	callq  400c30 <puts@plt>
  401c78:	be 00 00 00 00       	mov    $0x0,%esi
  401c7d:	bf 00 00 00 00       	mov    $0x0,%edi
  401c82:	e8 0b fd ff ff       	callq  401992 <notify_server>
  401c87:	bf 01 00 00 00       	mov    $0x1,%edi
  401c8c:	e8 1f f1 ff ff       	callq  400db0 <exit@plt>

0000000000401c91 <seghandler>:
  401c91:	48 83 ec 08          	sub    $0x8,%rsp
  401c95:	83 3d 6c 28 20 00 00 	cmpl   $0x0,0x20286c(%rip)        # 604508 <is_checker>
  401c9c:	74 16                	je     401cb4 <seghandler+0x23>
  401c9e:	48 8d 3d d0 13 00 00 	lea    0x13d0(%rip),%rdi        # 403075 <_IO_stdin_used+0x465>
  401ca5:	e8 86 ef ff ff       	callq  400c30 <puts@plt>
  401caa:	b8 00 00 00 00       	mov    $0x0,%eax
  401caf:	e8 59 fc ff ff       	callq  40190d <check_fail>
  401cb4:	48 8d 3d 25 15 00 00 	lea    0x1525(%rip),%rdi        # 4031e0 <_IO_stdin_used+0x5d0>
  401cbb:	e8 70 ef ff ff       	callq  400c30 <puts@plt>
  401cc0:	48 8d 3d 98 13 00 00 	lea    0x1398(%rip),%rdi        # 40305f <_IO_stdin_used+0x44f>
  401cc7:	e8 64 ef ff ff       	callq  400c30 <puts@plt>
  401ccc:	be 00 00 00 00       	mov    $0x0,%esi
  401cd1:	bf 00 00 00 00       	mov    $0x0,%edi
  401cd6:	e8 b7 fc ff ff       	callq  401992 <notify_server>
  401cdb:	bf 01 00 00 00       	mov    $0x1,%edi
  401ce0:	e8 cb f0 ff ff       	callq  400db0 <exit@plt>

0000000000401ce5 <illegalhandler>:
  401ce5:	48 83 ec 08          	sub    $0x8,%rsp
  401ce9:	83 3d 18 28 20 00 00 	cmpl   $0x0,0x202818(%rip)        # 604508 <is_checker>
  401cf0:	74 16                	je     401d08 <illegalhandler+0x23>
  401cf2:	48 8d 3d 8f 13 00 00 	lea    0x138f(%rip),%rdi        # 403088 <_IO_stdin_used+0x478>
  401cf9:	e8 32 ef ff ff       	callq  400c30 <puts@plt>
  401cfe:	b8 00 00 00 00       	mov    $0x0,%eax
  401d03:	e8 05 fc ff ff       	callq  40190d <check_fail>
  401d08:	48 8d 3d f9 14 00 00 	lea    0x14f9(%rip),%rdi        # 403208 <_IO_stdin_used+0x5f8>
  401d0f:	e8 1c ef ff ff       	callq  400c30 <puts@plt>
  401d14:	48 8d 3d 44 13 00 00 	lea    0x1344(%rip),%rdi        # 40305f <_IO_stdin_used+0x44f>
  401d1b:	e8 10 ef ff ff       	callq  400c30 <puts@plt>
  401d20:	be 00 00 00 00       	mov    $0x0,%esi
  401d25:	bf 00 00 00 00       	mov    $0x0,%edi
  401d2a:	e8 63 fc ff ff       	callq  401992 <notify_server>
  401d2f:	bf 01 00 00 00       	mov    $0x1,%edi
  401d34:	e8 77 f0 ff ff       	callq  400db0 <exit@plt>

0000000000401d39 <sigalrmhandler>:
  401d39:	48 83 ec 08          	sub    $0x8,%rsp
  401d3d:	83 3d c4 27 20 00 00 	cmpl   $0x0,0x2027c4(%rip)        # 604508 <is_checker>
  401d44:	74 16                	je     401d5c <sigalrmhandler+0x23>
  401d46:	48 8d 3d 4f 13 00 00 	lea    0x134f(%rip),%rdi        # 40309c <_IO_stdin_used+0x48c>
  401d4d:	e8 de ee ff ff       	callq  400c30 <puts@plt>
  401d52:	b8 00 00 00 00       	mov    $0x0,%eax
  401d57:	e8 b1 fb ff ff       	callq  40190d <check_fail>
  401d5c:	be 05 00 00 00       	mov    $0x5,%esi
  401d61:	48 8d 3d d0 14 00 00 	lea    0x14d0(%rip),%rdi        # 403238 <_IO_stdin_used+0x628>
  401d68:	b8 00 00 00 00       	mov    $0x0,%eax
  401d6d:	e8 ee ee ff ff       	callq  400c60 <printf@plt>
  401d72:	be 00 00 00 00       	mov    $0x0,%esi
  401d77:	bf 00 00 00 00       	mov    $0x0,%edi
  401d7c:	e8 11 fc ff ff       	callq  401992 <notify_server>
  401d81:	bf 01 00 00 00       	mov    $0x1,%edi
  401d86:	e8 25 f0 ff ff       	callq  400db0 <exit@plt>

0000000000401d8b <launch>:
  401d8b:	55                   	push   %rbp
  401d8c:	48 89 e5             	mov    %rsp,%rbp
  401d8f:	48 89 fa             	mov    %rdi,%rdx
  401d92:	48 8d 47 1e          	lea    0x1e(%rdi),%rax
  401d96:	48 83 e0 f0          	and    $0xfffffffffffffff0,%rax
  401d9a:	48 29 c4             	sub    %rax,%rsp
  401d9d:	48 8d 7c 24 0f       	lea    0xf(%rsp),%rdi
  401da2:	48 83 e7 f0          	and    $0xfffffffffffffff0,%rdi
  401da6:	be f4 00 00 00       	mov    $0xf4,%esi
  401dab:	e8 c0 ee ff ff       	callq  400c70 <memset@plt>
  401db0:	48 8b 05 e9 26 20 00 	mov    0x2026e9(%rip),%rax        # 6044a0 <stdin@@GLIBC_2.2.5>
  401db7:	48 39 05 32 27 20 00 	cmp    %rax,0x202732(%rip)        # 6044f0 <infile>
  401dbe:	74 2b                	je     401deb <launch+0x60>
  401dc0:	c7 05 32 27 20 00 00 	movl   $0x0,0x202732(%rip)        # 6044fc <vlevel>
  401dc7:	00 00 00 
  401dca:	b8 00 00 00 00       	mov    $0x0,%eax
  401dcf:	e8 a3 fa ff ff       	callq  401877 <test>
  401dd4:	83 3d 2d 27 20 00 00 	cmpl   $0x0,0x20272d(%rip)        # 604508 <is_checker>
  401ddb:	75 21                	jne    401dfe <launch+0x73>
  401ddd:	48 8d 3d d8 12 00 00 	lea    0x12d8(%rip),%rdi        # 4030bc <_IO_stdin_used+0x4ac>
  401de4:	e8 47 ee ff ff       	callq  400c30 <puts@plt>
  401de9:	c9                   	leaveq 
  401dea:	c3                   	retq   
  401deb:	48 8d 3d b2 12 00 00 	lea    0x12b2(%rip),%rdi        # 4030a4 <_IO_stdin_used+0x494>
  401df2:	b8 00 00 00 00       	mov    $0x0,%eax
  401df7:	e8 64 ee ff ff       	callq  400c60 <printf@plt>
  401dfc:	eb c2                	jmp    401dc0 <launch+0x35>
  401dfe:	48 8d 3d ac 12 00 00 	lea    0x12ac(%rip),%rdi        # 4030b1 <_IO_stdin_used+0x4a1>
  401e05:	e8 26 ee ff ff       	callq  400c30 <puts@plt>
  401e0a:	b8 00 00 00 00       	mov    $0x0,%eax
  401e0f:	e8 f9 fa ff ff       	callq  40190d <check_fail>

0000000000401e14 <stable_launch>:
  401e14:	53                   	push   %rbx
  401e15:	48 89 3d cc 26 20 00 	mov    %rdi,0x2026cc(%rip)        # 6044e8 <global_offset>
  401e1c:	41 b9 00 00 00 00    	mov    $0x0,%r9d
  401e22:	41 b8 00 00 00 00    	mov    $0x0,%r8d
  401e28:	b9 32 01 00 00       	mov    $0x132,%ecx
  401e2d:	ba 07 00 00 00       	mov    $0x7,%edx
  401e32:	be 00 00 10 00       	mov    $0x100000,%esi
  401e37:	bf 00 60 58 55       	mov    $0x55586000,%edi
  401e3c:	e8 0f ee ff ff       	callq  400c50 <mmap@plt>
  401e41:	48 89 c3             	mov    %rax,%rbx
  401e44:	48 3d 00 60 58 55    	cmp    $0x55586000,%rax
  401e4a:	75 43                	jne    401e8f <stable_launch+0x7b>
  401e4c:	48 8d 90 f8 ff 0f 00 	lea    0xffff8(%rax),%rdx
  401e53:	48 89 15 d6 32 20 00 	mov    %rdx,0x2032d6(%rip)        # 605130 <stack_top>
  401e5a:	48 89 e0             	mov    %rsp,%rax
  401e5d:	48 89 d4             	mov    %rdx,%rsp
  401e60:	48 89 c2             	mov    %rax,%rdx
  401e63:	48 89 15 76 26 20 00 	mov    %rdx,0x202676(%rip)        # 6044e0 <global_save_stack>
  401e6a:	48 8b 3d 77 26 20 00 	mov    0x202677(%rip),%rdi        # 6044e8 <global_offset>
  401e71:	e8 15 ff ff ff       	callq  401d8b <launch>
  401e76:	48 8b 05 63 26 20 00 	mov    0x202663(%rip),%rax        # 6044e0 <global_save_stack>
  401e7d:	48 89 c4             	mov    %rax,%rsp
  401e80:	be 00 00 10 00       	mov    $0x100000,%esi
  401e85:	48 89 df             	mov    %rbx,%rdi
  401e88:	e8 b3 ee ff ff       	callq  400d40 <munmap@plt>
  401e8d:	5b                   	pop    %rbx
  401e8e:	c3                   	retq   
  401e8f:	be 00 00 10 00       	mov    $0x100000,%esi
  401e94:	48 89 c7             	mov    %rax,%rdi
  401e97:	e8 a4 ee ff ff       	callq  400d40 <munmap@plt>
  401e9c:	ba 00 60 58 55       	mov    $0x55586000,%edx
  401ea1:	48 8d 35 c8 13 00 00 	lea    0x13c8(%rip),%rsi        # 403270 <_IO_stdin_used+0x660>
  401ea8:	48 8b 3d 11 26 20 00 	mov    0x202611(%rip),%rdi        # 6044c0 <stderr@@GLIBC_2.2.5>
  401eaf:	b8 00 00 00 00       	mov    $0x0,%eax
  401eb4:	e8 17 ee ff ff       	callq  400cd0 <fprintf@plt>
  401eb9:	bf 01 00 00 00       	mov    $0x1,%edi
  401ebe:	e8 ed ee ff ff       	callq  400db0 <exit@plt>

0000000000401ec3 <rio_readinitb>:
  401ec3:	89 37                	mov    %esi,(%rdi)
  401ec5:	c7 47 04 00 00 00 00 	movl   $0x0,0x4(%rdi)
  401ecc:	48 8d 47 10          	lea    0x10(%rdi),%rax
  401ed0:	48 89 47 08          	mov    %rax,0x8(%rdi)
  401ed4:	c3                   	retq   

0000000000401ed5 <sigalrm_handler>:
  401ed5:	48 83 ec 08          	sub    $0x8,%rsp
  401ed9:	ba 00 00 00 00       	mov    $0x0,%edx
  401ede:	48 8d 35 cb 13 00 00 	lea    0x13cb(%rip),%rsi        # 4032b0 <trans_char+0x10>
  401ee5:	48 8b 3d d4 25 20 00 	mov    0x2025d4(%rip),%rdi        # 6044c0 <stderr@@GLIBC_2.2.5>
  401eec:	b8 00 00 00 00       	mov    $0x0,%eax
  401ef1:	e8 da ed ff ff       	callq  400cd0 <fprintf@plt>
  401ef6:	bf 01 00 00 00       	mov    $0x1,%edi
  401efb:	e8 b0 ee ff ff       	callq  400db0 <exit@plt>

0000000000401f00 <urlencode>:
  401f00:	41 54                	push   %r12
  401f02:	55                   	push   %rbp
  401f03:	53                   	push   %rbx
  401f04:	48 83 ec 10          	sub    $0x10,%rsp
  401f08:	48 89 fb             	mov    %rdi,%rbx
  401f0b:	48 89 f5             	mov    %rsi,%rbp
  401f0e:	b8 00 00 00 00       	mov    $0x0,%eax
  401f13:	48 c7 c1 ff ff ff ff 	mov    $0xffffffffffffffff,%rcx
  401f1a:	f2 ae                	repnz scas %es:(%rdi),%al
  401f1c:	48 f7 d1             	not    %rcx
  401f1f:	8d 41 ff             	lea    -0x1(%rcx),%eax
  401f22:	eb 0e                	jmp    401f32 <urlencode+0x32>
  401f24:	88 55 00             	mov    %dl,0x0(%rbp)
  401f27:	48 8d 6d 01          	lea    0x1(%rbp),%rbp
  401f2b:	48 83 c3 01          	add    $0x1,%rbx
  401f2f:	44 89 e0             	mov    %r12d,%eax
  401f32:	44 8d 60 ff          	lea    -0x1(%rax),%r12d
  401f36:	85 c0                	test   %eax,%eax
  401f38:	0f 84 95 00 00 00    	je     401fd3 <urlencode+0xd3>
  401f3e:	0f b6 13             	movzbl (%rbx),%edx
  401f41:	80 fa 2a             	cmp    $0x2a,%dl
  401f44:	0f 94 c1             	sete   %cl
  401f47:	80 fa 2d             	cmp    $0x2d,%dl
  401f4a:	0f 94 c0             	sete   %al
  401f4d:	08 c1                	or     %al,%cl
  401f4f:	75 d3                	jne    401f24 <urlencode+0x24>
  401f51:	80 fa 2e             	cmp    $0x2e,%dl
  401f54:	74 ce                	je     401f24 <urlencode+0x24>
  401f56:	80 fa 5f             	cmp    $0x5f,%dl
  401f59:	74 c9                	je     401f24 <urlencode+0x24>
  401f5b:	8d 42 d0             	lea    -0x30(%rdx),%eax
  401f5e:	3c 09                	cmp    $0x9,%al
  401f60:	76 c2                	jbe    401f24 <urlencode+0x24>
  401f62:	8d 42 bf             	lea    -0x41(%rdx),%eax
  401f65:	3c 19                	cmp    $0x19,%al
  401f67:	76 bb                	jbe    401f24 <urlencode+0x24>
  401f69:	8d 42 9f             	lea    -0x61(%rdx),%eax
  401f6c:	3c 19                	cmp    $0x19,%al
  401f6e:	76 b4                	jbe    401f24 <urlencode+0x24>
  401f70:	80 fa 20             	cmp    $0x20,%dl
  401f73:	74 4c                	je     401fc1 <urlencode+0xc1>
  401f75:	8d 42 e0             	lea    -0x20(%rdx),%eax
  401f78:	3c 5f                	cmp    $0x5f,%al
  401f7a:	0f 96 c1             	setbe  %cl
  401f7d:	80 fa 09             	cmp    $0x9,%dl
  401f80:	0f 94 c0             	sete   %al
  401f83:	08 c1                	or     %al,%cl
  401f85:	74 47                	je     401fce <urlencode+0xce>
  401f87:	0f b6 d2             	movzbl %dl,%edx
  401f8a:	48 8d 7c 24 08       	lea    0x8(%rsp),%rdi
  401f8f:	48 8d 35 b2 13 00 00 	lea    0x13b2(%rip),%rsi        # 403348 <trans_char+0xa8>
  401f96:	b8 00 00 00 00       	mov    $0x0,%eax
  401f9b:	e8 00 ee ff ff       	callq  400da0 <sprintf@plt>
  401fa0:	0f b6 44 24 08       	movzbl 0x8(%rsp),%eax
  401fa5:	88 45 00             	mov    %al,0x0(%rbp)
  401fa8:	0f b6 44 24 09       	movzbl 0x9(%rsp),%eax
  401fad:	88 45 01             	mov    %al,0x1(%rbp)
  401fb0:	0f b6 44 24 0a       	movzbl 0xa(%rsp),%eax
  401fb5:	88 45 02             	mov    %al,0x2(%rbp)
  401fb8:	48 8d 6d 03          	lea    0x3(%rbp),%rbp
  401fbc:	e9 6a ff ff ff       	jmpq   401f2b <urlencode+0x2b>
  401fc1:	c6 45 00 2b          	movb   $0x2b,0x0(%rbp)
  401fc5:	48 8d 6d 01          	lea    0x1(%rbp),%rbp
  401fc9:	e9 5d ff ff ff       	jmpq   401f2b <urlencode+0x2b>
  401fce:	b8 ff ff ff ff       	mov    $0xffffffff,%eax
  401fd3:	48 83 c4 10          	add    $0x10,%rsp
  401fd7:	5b                   	pop    %rbx
  401fd8:	5d                   	pop    %rbp
  401fd9:	41 5c                	pop    %r12
  401fdb:	c3                   	retq   

0000000000401fdc <rio_writen>:
  401fdc:	41 55                	push   %r13
  401fde:	41 54                	push   %r12
  401fe0:	55                   	push   %rbp
  401fe1:	53                   	push   %rbx
  401fe2:	48 83 ec 08          	sub    $0x8,%rsp
  401fe6:	41 89 fc             	mov    %edi,%r12d
  401fe9:	49 89 d5             	mov    %rdx,%r13
  401fec:	48 89 f5             	mov    %rsi,%rbp
  401fef:	48 89 d3             	mov    %rdx,%rbx
  401ff2:	eb 06                	jmp    401ffa <rio_writen+0x1e>
  401ff4:	48 29 c3             	sub    %rax,%rbx
  401ff7:	48 01 c5             	add    %rax,%rbp
  401ffa:	48 85 db             	test   %rbx,%rbx
  401ffd:	74 24                	je     402023 <rio_writen+0x47>
  401fff:	48 89 da             	mov    %rbx,%rdx
  402002:	48 89 ee             	mov    %rbp,%rsi
  402005:	44 89 e7             	mov    %r12d,%edi
  402008:	e8 33 ec ff ff       	callq  400c40 <write@plt>
  40200d:	48 85 c0             	test   %rax,%rax
  402010:	7f e2                	jg     401ff4 <rio_writen+0x18>
  402012:	e8 d9 eb ff ff       	callq  400bf0 <__errno_location@plt>
  402017:	83 38 04             	cmpl   $0x4,(%rax)
  40201a:	75 15                	jne    402031 <rio_writen+0x55>
  40201c:	b8 00 00 00 00       	mov    $0x0,%eax
  402021:	eb d1                	jmp    401ff4 <rio_writen+0x18>
  402023:	4c 89 e8             	mov    %r13,%rax
  402026:	48 83 c4 08          	add    $0x8,%rsp
  40202a:	5b                   	pop    %rbx
  40202b:	5d                   	pop    %rbp
  40202c:	41 5c                	pop    %r12
  40202e:	41 5d                	pop    %r13
  402030:	c3                   	retq   
  402031:	48 c7 c0 ff ff ff ff 	mov    $0xffffffffffffffff,%rax
  402038:	eb ec                	jmp    402026 <rio_writen+0x4a>

000000000040203a <rio_read>:
  40203a:	41 55                	push   %r13
  40203c:	41 54                	push   %r12
  40203e:	55                   	push   %rbp
  40203f:	53                   	push   %rbx
  402040:	48 83 ec 08          	sub    $0x8,%rsp
  402044:	48 89 fb             	mov    %rdi,%rbx
  402047:	49 89 f5             	mov    %rsi,%r13
  40204a:	49 89 d4             	mov    %rdx,%r12
  40204d:	eb 0a                	jmp    402059 <rio_read+0x1f>
  40204f:	e8 9c eb ff ff       	callq  400bf0 <__errno_location@plt>
  402054:	83 38 04             	cmpl   $0x4,(%rax)
  402057:	75 5c                	jne    4020b5 <rio_read+0x7b>
  402059:	8b 6b 04             	mov    0x4(%rbx),%ebp
  40205c:	85 ed                	test   %ebp,%ebp
  40205e:	7f 24                	jg     402084 <rio_read+0x4a>
  402060:	48 8d 6b 10          	lea    0x10(%rbx),%rbp
  402064:	ba 00 20 00 00       	mov    $0x2000,%edx
  402069:	48 89 ee             	mov    %rbp,%rsi
  40206c:	8b 3b                	mov    (%rbx),%edi
  40206e:	e8 2d ec ff ff       	callq  400ca0 <read@plt>
  402073:	89 43 04             	mov    %eax,0x4(%rbx)
  402076:	85 c0                	test   %eax,%eax
  402078:	78 d5                	js     40204f <rio_read+0x15>
  40207a:	85 c0                	test   %eax,%eax
  40207c:	74 40                	je     4020be <rio_read+0x84>
  40207e:	48 89 6b 08          	mov    %rbp,0x8(%rbx)
  402082:	eb d5                	jmp    402059 <rio_read+0x1f>
  402084:	89 e8                	mov    %ebp,%eax
  402086:	49 39 c4             	cmp    %rax,%r12
  402089:	77 03                	ja     40208e <rio_read+0x54>
  40208b:	44 89 e5             	mov    %r12d,%ebp
  40208e:	4c 63 e5             	movslq %ebp,%r12
  402091:	48 8b 73 08          	mov    0x8(%rbx),%rsi
  402095:	4c 89 e2             	mov    %r12,%rdx
  402098:	4c 89 ef             	mov    %r13,%rdi
  40209b:	e8 50 ec ff ff       	callq  400cf0 <memcpy@plt>
  4020a0:	4c 01 63 08          	add    %r12,0x8(%rbx)
  4020a4:	29 6b 04             	sub    %ebp,0x4(%rbx)
  4020a7:	4c 89 e0             	mov    %r12,%rax
  4020aa:	48 83 c4 08          	add    $0x8,%rsp
  4020ae:	5b                   	pop    %rbx
  4020af:	5d                   	pop    %rbp
  4020b0:	41 5c                	pop    %r12
  4020b2:	41 5d                	pop    %r13
  4020b4:	c3                   	retq   
  4020b5:	48 c7 c0 ff ff ff ff 	mov    $0xffffffffffffffff,%rax
  4020bc:	eb ec                	jmp    4020aa <rio_read+0x70>
  4020be:	b8 00 00 00 00       	mov    $0x0,%eax
  4020c3:	eb e5                	jmp    4020aa <rio_read+0x70>

00000000004020c5 <rio_readlineb>:
  4020c5:	41 55                	push   %r13
  4020c7:	41 54                	push   %r12
  4020c9:	55                   	push   %rbp
  4020ca:	53                   	push   %rbx
  4020cb:	48 83 ec 18          	sub    $0x18,%rsp
  4020cf:	49 89 fd             	mov    %rdi,%r13
  4020d2:	49 89 d4             	mov    %rdx,%r12
  4020d5:	48 89 f5             	mov    %rsi,%rbp
  4020d8:	bb 01 00 00 00       	mov    $0x1,%ebx
  4020dd:	4c 39 e3             	cmp    %r12,%rbx
  4020e0:	73 47                	jae    402129 <rio_readlineb+0x64>
  4020e2:	48 8d 74 24 0f       	lea    0xf(%rsp),%rsi
  4020e7:	ba 01 00 00 00       	mov    $0x1,%edx
  4020ec:	4c 89 ef             	mov    %r13,%rdi
  4020ef:	e8 46 ff ff ff       	callq  40203a <rio_read>
  4020f4:	83 f8 01             	cmp    $0x1,%eax
  4020f7:	75 1c                	jne    402115 <rio_readlineb+0x50>
  4020f9:	48 8d 45 01          	lea    0x1(%rbp),%rax
  4020fd:	0f b6 54 24 0f       	movzbl 0xf(%rsp),%edx
  402102:	88 55 00             	mov    %dl,0x0(%rbp)
  402105:	80 7c 24 0f 0a       	cmpb   $0xa,0xf(%rsp)
  40210a:	74 1a                	je     402126 <rio_readlineb+0x61>
  40210c:	48 83 c3 01          	add    $0x1,%rbx
  402110:	48 89 c5             	mov    %rax,%rbp
  402113:	eb c8                	jmp    4020dd <rio_readlineb+0x18>
  402115:	85 c0                	test   %eax,%eax
  402117:	75 22                	jne    40213b <rio_readlineb+0x76>
  402119:	48 83 fb 01          	cmp    $0x1,%rbx
  40211d:	75 0a                	jne    402129 <rio_readlineb+0x64>
  40211f:	b8 00 00 00 00       	mov    $0x0,%eax
  402124:	eb 0a                	jmp    402130 <rio_readlineb+0x6b>
  402126:	48 89 c5             	mov    %rax,%rbp
  402129:	c6 45 00 00          	movb   $0x0,0x0(%rbp)
  40212d:	48 89 d8             	mov    %rbx,%rax
  402130:	48 83 c4 18          	add    $0x18,%rsp
  402134:	5b                   	pop    %rbx
  402135:	5d                   	pop    %rbp
  402136:	41 5c                	pop    %r12
  402138:	41 5d                	pop    %r13
  40213a:	c3                   	retq   
  40213b:	48 c7 c0 ff ff ff ff 	mov    $0xffffffffffffffff,%rax
  402142:	eb ec                	jmp    402130 <rio_readlineb+0x6b>

0000000000402144 <submitr>:
  402144:	41 57                	push   %r15
  402146:	41 56                	push   %r14
  402148:	41 55                	push   %r13
  40214a:	41 54                	push   %r12
  40214c:	55                   	push   %rbp
  40214d:	53                   	push   %rbx
  40214e:	48 81 ec 58 a0 00 00 	sub    $0xa058,%rsp
  402155:	49 89 fd             	mov    %rdi,%r13
  402158:	89 74 24 14          	mov    %esi,0x14(%rsp)
  40215c:	49 89 d7             	mov    %rdx,%r15
  40215f:	48 89 4c 24 08       	mov    %rcx,0x8(%rsp)
  402164:	4c 89 44 24 18       	mov    %r8,0x18(%rsp)
  402169:	4d 89 ce             	mov    %r9,%r14
  40216c:	48 8b 9c 24 90 a0 00 	mov    0xa090(%rsp),%rbx
  402173:	00 
  402174:	c7 84 24 2c 20 00 00 	movl   $0x0,0x202c(%rsp)
  40217b:	00 00 00 00 
  40217f:	ba 00 00 00 00       	mov    $0x0,%edx
  402184:	be 01 00 00 00       	mov    $0x1,%esi
  402189:	bf 02 00 00 00       	mov    $0x2,%edi
  40218e:	e8 3d ec ff ff       	callq  400dd0 <socket@plt>
  402193:	85 c0                	test   %eax,%eax
  402195:	0f 88 ca 01 00 00    	js     402365 <submitr+0x221>
  40219b:	89 c5                	mov    %eax,%ebp
  40219d:	4c 89 ef             	mov    %r13,%rdi
  4021a0:	e8 1b eb ff ff       	callq  400cc0 <gethostbyname@plt>
  4021a5:	48 85 c0             	test   %rax,%rax
  4021a8:	0f 84 05 02 00 00    	je     4023b3 <submitr+0x26f>
  4021ae:	4c 8d a4 24 40 a0 00 	lea    0xa040(%rsp),%r12
  4021b5:	00 
  4021b6:	48 c7 84 24 40 a0 00 	movq   $0x0,0xa040(%rsp)
  4021bd:	00 00 00 00 00 
  4021c2:	48 c7 84 24 48 a0 00 	movq   $0x0,0xa048(%rsp)
  4021c9:	00 00 00 00 00 
  4021ce:	66 c7 84 24 40 a0 00 	movw   $0x2,0xa040(%rsp)
  4021d5:	00 02 00 
  4021d8:	48 8b 48 18          	mov    0x18(%rax),%rcx
  4021dc:	48 63 50 14          	movslq 0x14(%rax),%rdx
  4021e0:	48 8d b4 24 44 a0 00 	lea    0xa044(%rsp),%rsi
  4021e7:	00 
  4021e8:	48 8b 39             	mov    (%rcx),%rdi
  4021eb:	e8 60 eb ff ff       	callq  400d50 <bcopy@plt>
  4021f0:	0f b7 44 24 14       	movzwl 0x14(%rsp),%eax
  4021f5:	66 c1 c8 08          	ror    $0x8,%ax
  4021f9:	66 89 84 24 42 a0 00 	mov    %ax,0xa042(%rsp)
  402200:	00 
  402201:	ba 10 00 00 00       	mov    $0x10,%edx
  402206:	4c 89 e6             	mov    %r12,%rsi
  402209:	89 ef                	mov    %ebp,%edi
  40220b:	e8 b0 eb ff ff       	callq  400dc0 <connect@plt>
  402210:	85 c0                	test   %eax,%eax
  402212:	0f 88 02 02 00 00    	js     40241a <submitr+0x2d6>
  402218:	48 c7 c6 ff ff ff ff 	mov    $0xffffffffffffffff,%rsi
  40221f:	b8 00 00 00 00       	mov    $0x0,%eax
  402224:	48 89 f1             	mov    %rsi,%rcx
  402227:	4c 89 f7             	mov    %r14,%rdi
  40222a:	f2 ae                	repnz scas %es:(%rdi),%al
  40222c:	48 f7 d1             	not    %rcx
  40222f:	48 89 ca             	mov    %rcx,%rdx
  402232:	48 89 f1             	mov    %rsi,%rcx
  402235:	4c 89 ff             	mov    %r15,%rdi
  402238:	f2 ae                	repnz scas %es:(%rdi),%al
  40223a:	48 f7 d1             	not    %rcx
  40223d:	49 89 c8             	mov    %rcx,%r8
  402240:	48 89 f1             	mov    %rsi,%rcx
  402243:	48 8b 7c 24 08       	mov    0x8(%rsp),%rdi
  402248:	f2 ae                	repnz scas %es:(%rdi),%al
  40224a:	48 f7 d1             	not    %rcx
  40224d:	4d 8d 44 08 fe       	lea    -0x2(%r8,%rcx,1),%r8
  402252:	48 89 f1             	mov    %rsi,%rcx
  402255:	48 8b 7c 24 18       	mov    0x18(%rsp),%rdi
  40225a:	f2 ae                	repnz scas %es:(%rdi),%al
  40225c:	48 89 c8             	mov    %rcx,%rax
  40225f:	48 f7 d0             	not    %rax
  402262:	49 8d 4c 00 ff       	lea    -0x1(%r8,%rax,1),%rcx
  402267:	48 8d 44 52 fd       	lea    -0x3(%rdx,%rdx,2),%rax
  40226c:	48 8d 84 01 80 00 00 	lea    0x80(%rcx,%rax,1),%rax
  402273:	00 
  402274:	48 3d 00 20 00 00    	cmp    $0x2000,%rax
  40227a:	0f 87 f3 01 00 00    	ja     402473 <submitr+0x32f>
  402280:	48 8d b4 24 30 40 00 	lea    0x4030(%rsp),%rsi
  402287:	00 
  402288:	b9 00 04 00 00       	mov    $0x400,%ecx
  40228d:	b8 00 00 00 00       	mov    $0x0,%eax
  402292:	48 89 f7             	mov    %rsi,%rdi
  402295:	f3 48 ab             	rep stos %rax,%es:(%rdi)
  402298:	4c 89 f7             	mov    %r14,%rdi
  40229b:	e8 60 fc ff ff       	callq  401f00 <urlencode>
  4022a0:	85 c0                	test   %eax,%eax
  4022a2:	0f 88 3d 02 00 00    	js     4024e5 <submitr+0x3a1>
  4022a8:	4c 8d a4 24 30 60 00 	lea    0x6030(%rsp),%r12
  4022af:	00 
  4022b0:	4d 89 e9             	mov    %r13,%r9
  4022b3:	4c 8d 84 24 30 40 00 	lea    0x4030(%rsp),%r8
  4022ba:	00 
  4022bb:	4c 89 f9             	mov    %r15,%rcx
  4022be:	48 8b 54 24 08       	mov    0x8(%rsp),%rdx
  4022c3:	48 8d 35 0e 10 00 00 	lea    0x100e(%rip),%rsi        # 4032d8 <trans_char+0x38>
  4022ca:	4c 89 e7             	mov    %r12,%rdi
  4022cd:	b8 00 00 00 00       	mov    $0x0,%eax
  4022d2:	e8 c9 ea ff ff       	callq  400da0 <sprintf@plt>
  4022d7:	b8 00 00 00 00       	mov    $0x0,%eax
  4022dc:	48 c7 c1 ff ff ff ff 	mov    $0xffffffffffffffff,%rcx
  4022e3:	4c 89 e7             	mov    %r12,%rdi
  4022e6:	f2 ae                	repnz scas %es:(%rdi),%al
  4022e8:	48 f7 d1             	not    %rcx
  4022eb:	48 8d 51 ff          	lea    -0x1(%rcx),%rdx
  4022ef:	4c 89 e6             	mov    %r12,%rsi
  4022f2:	89 ef                	mov    %ebp,%edi
  4022f4:	e8 e3 fc ff ff       	callq  401fdc <rio_writen>
  4022f9:	48 85 c0             	test   %rax,%rax
  4022fc:	0f 88 6d 02 00 00    	js     40256f <submitr+0x42b>
  402302:	4c 8d a4 24 30 80 00 	lea    0x8030(%rsp),%r12
  402309:	00 
  40230a:	89 ee                	mov    %ebp,%esi
  40230c:	4c 89 e7             	mov    %r12,%rdi
  40230f:	e8 af fb ff ff       	callq  401ec3 <rio_readinitb>
  402314:	48 8d b4 24 30 60 00 	lea    0x6030(%rsp),%rsi
  40231b:	00 
  40231c:	ba 00 20 00 00       	mov    $0x2000,%edx
  402321:	4c 89 e7             	mov    %r12,%rdi
  402324:	e8 9c fd ff ff       	callq  4020c5 <rio_readlineb>
  402329:	48 85 c0             	test   %rax,%rax
  40232c:	0f 8e ab 02 00 00    	jle    4025dd <submitr+0x499>
  402332:	48 8d 8c 24 2c 20 00 	lea    0x202c(%rsp),%rcx
  402339:	00 
  40233a:	48 8d 94 24 30 20 00 	lea    0x2030(%rsp),%rdx
  402341:	00 
  402342:	48 8d bc 24 30 60 00 	lea    0x6030(%rsp),%rdi
  402349:	00 
  40234a:	4c 8d 44 24 20       	lea    0x20(%rsp),%r8
  40234f:	48 8d 35 f9 0f 00 00 	lea    0xff9(%rip),%rsi        # 40334f <trans_char+0xaf>
  402356:	b8 00 00 00 00       	mov    $0x0,%eax
  40235b:	e8 d0 e9 ff ff       	callq  400d30 <__isoc99_sscanf@plt>
  402360:	e9 9f 03 00 00       	jmpq   402704 <submitr+0x5c0>
  402365:	48 b8 45 72 72 6f 72 	movabs $0x43203a726f727245,%rax
  40236c:	3a 20 43 
  40236f:	48 89 03             	mov    %rax,(%rbx)
  402372:	48 b8 6c 69 65 6e 74 	movabs $0x6e7520746e65696c,%rax
  402379:	20 75 6e 
  40237c:	48 89 43 08          	mov    %rax,0x8(%rbx)
  402380:	48 b8 61 62 6c 65 20 	movabs $0x206f7420656c6261,%rax
  402387:	74 6f 20 
  40238a:	48 89 43 10          	mov    %rax,0x10(%rbx)
  40238e:	48 b8 63 72 65 61 74 	movabs $0x7320657461657263,%rax
  402395:	65 20 73 
  402398:	48 89 43 18          	mov    %rax,0x18(%rbx)
  40239c:	c7 43 20 6f 63 6b 65 	movl   $0x656b636f,0x20(%rbx)
  4023a3:	66 c7 43 24 74 00    	movw   $0x74,0x24(%rbx)
  4023a9:	b8 ff ff ff ff       	mov    $0xffffffff,%eax
  4023ae:	e9 18 03 00 00       	jmpq   4026cb <submitr+0x587>
  4023b3:	48 b8 45 72 72 6f 72 	movabs $0x44203a726f727245,%rax
  4023ba:	3a 20 44 
  4023bd:	48 89 03             	mov    %rax,(%rbx)
  4023c0:	48 b8 4e 53 20 69 73 	movabs $0x6e7520736920534e,%rax
  4023c7:	20 75 6e 
  4023ca:	48 89 43 08          	mov    %rax,0x8(%rbx)
  4023ce:	48 b8 61 62 6c 65 20 	movabs $0x206f7420656c6261,%rax
  4023d5:	74 6f 20 
  4023d8:	48 89 43 10          	mov    %rax,0x10(%rbx)
  4023dc:	48 b8 72 65 73 6f 6c 	movabs $0x2065766c6f736572,%rax
  4023e3:	76 65 20 
  4023e6:	48 89 43 18          	mov    %rax,0x18(%rbx)
  4023ea:	48 b8 73 65 72 76 65 	movabs $0x6120726576726573,%rax
  4023f1:	72 20 61 
  4023f4:	48 89 43 20          	mov    %rax,0x20(%rbx)
  4023f8:	c7 43 28 64 64 72 65 	movl   $0x65726464,0x28(%rbx)
  4023ff:	66 c7 43 2c 73 73    	movw   $0x7373,0x2c(%rbx)
  402405:	c6 43 2e 00          	movb   $0x0,0x2e(%rbx)
  402409:	89 ef                	mov    %ebp,%edi
  40240b:	e8 80 e8 ff ff       	callq  400c90 <close@plt>
  402410:	b8 ff ff ff ff       	mov    $0xffffffff,%eax
  402415:	e9 b1 02 00 00       	jmpq   4026cb <submitr+0x587>
  40241a:	48 b8 45 72 72 6f 72 	movabs $0x55203a726f727245,%rax
  402421:	3a 20 55 
  402424:	48 89 03             	mov    %rax,(%rbx)
  402427:	48 b8 6e 61 62 6c 65 	movabs $0x6f7420656c62616e,%rax
  40242e:	20 74 6f 
  402431:	48 89 43 08          	mov    %rax,0x8(%rbx)
  402435:	48 b8 20 63 6f 6e 6e 	movabs $0x7463656e6e6f6320,%rax
  40243c:	65 63 74 
  40243f:	48 89 43 10          	mov    %rax,0x10(%rbx)
  402443:	48 b8 20 74 6f 20 74 	movabs $0x20656874206f7420,%rax
  40244a:	68 65 20 
  40244d:	48 89 43 18          	mov    %rax,0x18(%rbx)
  402451:	c7 43 20 73 65 72 76 	movl   $0x76726573,0x20(%rbx)
  402458:	66 c7 43 24 65 72    	movw   $0x7265,0x24(%rbx)
  40245e:	c6 43 26 00          	movb   $0x0,0x26(%rbx)
  402462:	89 ef                	mov    %ebp,%edi
  402464:	e8 27 e8 ff ff       	callq  400c90 <close@plt>
  402469:	b8 ff ff ff ff       	mov    $0xffffffff,%eax
  40246e:	e9 58 02 00 00       	jmpq   4026cb <submitr+0x587>
  402473:	48 b8 45 72 72 6f 72 	movabs $0x52203a726f727245,%rax
  40247a:	3a 20 52 
  40247d:	48 89 03             	mov    %rax,(%rbx)
  402480:	48 b8 65 73 75 6c 74 	movabs $0x747320746c757365,%rax
  402487:	20 73 74 
  40248a:	48 89 43 08          	mov    %rax,0x8(%rbx)
  40248e:	48 b8 72 69 6e 67 20 	movabs $0x6f6f7420676e6972,%rax
  402495:	74 6f 6f 
  402498:	48 89 43 10          	mov    %rax,0x10(%rbx)
  40249c:	48 b8 20 6c 61 72 67 	movabs $0x202e656772616c20,%rax
  4024a3:	65 2e 20 
  4024a6:	48 89 43 18          	mov    %rax,0x18(%rbx)
  4024aa:	48 b8 49 6e 63 72 65 	movabs $0x6573616572636e49,%rax
  4024b1:	61 73 65 
  4024b4:	48 89 43 20          	mov    %rax,0x20(%rbx)
  4024b8:	48 b8 20 53 55 42 4d 	movabs $0x5254494d42555320,%rax
  4024bf:	49 54 52 
  4024c2:	48 89 43 28          	mov    %rax,0x28(%rbx)
  4024c6:	48 b8 5f 4d 41 58 42 	movabs $0x46554258414d5f,%rax
  4024cd:	55 46 00 
  4024d0:	48 89 43 30          	mov    %rax,0x30(%rbx)
  4024d4:	89 ef                	mov    %ebp,%edi
  4024d6:	e8 b5 e7 ff ff       	callq  400c90 <close@plt>
  4024db:	b8 ff ff ff ff       	mov    $0xffffffff,%eax
  4024e0:	e9 e6 01 00 00       	jmpq   4026cb <submitr+0x587>
  4024e5:	48 b8 45 72 72 6f 72 	movabs $0x52203a726f727245,%rax
  4024ec:	3a 20 52 
  4024ef:	48 89 03             	mov    %rax,(%rbx)
  4024f2:	48 b8 65 73 75 6c 74 	movabs $0x747320746c757365,%rax
  4024f9:	20 73 74 
  4024fc:	48 89 43 08          	mov    %rax,0x8(%rbx)
  402500:	48 b8 72 69 6e 67 20 	movabs $0x6e6f6320676e6972,%rax
  402507:	63 6f 6e 
  40250a:	48 89 43 10          	mov    %rax,0x10(%rbx)
  40250e:	48 b8 74 61 69 6e 73 	movabs $0x6e6120736e696174,%rax
  402515:	20 61 6e 
  402518:	48 89 43 18          	mov    %rax,0x18(%rbx)
  40251c:	48 b8 20 69 6c 6c 65 	movabs $0x6c6167656c6c6920,%rax
  402523:	67 61 6c 
  402526:	48 89 43 20          	mov    %rax,0x20(%rbx)
  40252a:	48 b8 20 6f 72 20 75 	movabs $0x72706e7520726f20,%rax
  402531:	6e 70 72 
  402534:	48 89 43 28          	mov    %rax,0x28(%rbx)
  402538:	48 b8 69 6e 74 61 62 	movabs $0x20656c6261746e69,%rax
  40253f:	6c 65 20 
  402542:	48 89 43 30          	mov    %rax,0x30(%rbx)
  402546:	48 b8 63 68 61 72 61 	movabs $0x6574636172616863,%rax
  40254d:	63 74 65 
  402550:	48 89 43 38          	mov    %rax,0x38(%rbx)
  402554:	66 c7 43 40 72 2e    	movw   $0x2e72,0x40(%rbx)
  40255a:	c6 43 42 00          	movb   $0x0,0x42(%rbx)
  40255e:	89 ef                	mov    %ebp,%edi
  402560:	e8 2b e7 ff ff       	callq  400c90 <close@plt>
  402565:	b8 ff ff ff ff       	mov    $0xffffffff,%eax
  40256a:	e9 5c 01 00 00       	jmpq   4026cb <submitr+0x587>
  40256f:	48 b8 45 72 72 6f 72 	movabs $0x43203a726f727245,%rax
  402576:	3a 20 43 
  402579:	48 89 03             	mov    %rax,(%rbx)
  40257c:	48 b8 6c 69 65 6e 74 	movabs $0x6e7520746e65696c,%rax
  402583:	20 75 6e 
  402586:	48 89 43 08          	mov    %rax,0x8(%rbx)
  40258a:	48 b8 61 62 6c 65 20 	movabs $0x206f7420656c6261,%rax
  402591:	74 6f 20 
  402594:	48 89 43 10          	mov    %rax,0x10(%rbx)
  402598:	48 b8 77 72 69 74 65 	movabs $0x6f74206574697277,%rax
  40259f:	20 74 6f 
  4025a2:	48 89 43 18          	mov    %rax,0x18(%rbx)
  4025a6:	48 b8 20 74 68 65 20 	movabs $0x7365722065687420,%rax
  4025ad:	72 65 73 
  4025b0:	48 89 43 20          	mov    %rax,0x20(%rbx)
  4025b4:	48 b8 75 6c 74 20 73 	movabs $0x7672657320746c75,%rax
  4025bb:	65 72 76 
  4025be:	48 89 43 28          	mov    %rax,0x28(%rbx)
  4025c2:	66 c7 43 30 65 72    	movw   $0x7265,0x30(%rbx)
  4025c8:	c6 43 32 00          	movb   $0x0,0x32(%rbx)
  4025cc:	89 ef                	mov    %ebp,%edi
  4025ce:	e8 bd e6 ff ff       	callq  400c90 <close@plt>
  4025d3:	b8 ff ff ff ff       	mov    $0xffffffff,%eax
  4025d8:	e9 ee 00 00 00       	jmpq   4026cb <submitr+0x587>
  4025dd:	48 b8 45 72 72 6f 72 	movabs $0x43203a726f727245,%rax
  4025e4:	3a 20 43 
  4025e7:	48 89 03             	mov    %rax,(%rbx)
  4025ea:	48 b8 6c 69 65 6e 74 	movabs $0x6e7520746e65696c,%rax
  4025f1:	20 75 6e 
  4025f4:	48 89 43 08          	mov    %rax,0x8(%rbx)
  4025f8:	48 b8 61 62 6c 65 20 	movabs $0x206f7420656c6261,%rax
  4025ff:	74 6f 20 
  402602:	48 89 43 10          	mov    %rax,0x10(%rbx)
  402606:	48 b8 72 65 61 64 20 	movabs $0x7269662064616572,%rax
  40260d:	66 69 72 
  402610:	48 89 43 18          	mov    %rax,0x18(%rbx)
  402614:	48 b8 73 74 20 68 65 	movabs $0x6564616568207473,%rax
  40261b:	61 64 65 
  40261e:	48 89 43 20          	mov    %rax,0x20(%rbx)
  402622:	48 b8 72 20 66 72 6f 	movabs $0x72206d6f72662072,%rax
  402629:	6d 20 72 
  40262c:	48 89 43 28          	mov    %rax,0x28(%rbx)
  402630:	48 b8 65 73 75 6c 74 	movabs $0x657320746c757365,%rax
  402637:	20 73 65 
  40263a:	48 89 43 30          	mov    %rax,0x30(%rbx)
  40263e:	c7 43 38 72 76 65 72 	movl   $0x72657672,0x38(%rbx)
  402645:	c6 43 3c 00          	movb   $0x0,0x3c(%rbx)
  402649:	89 ef                	mov    %ebp,%edi
  40264b:	e8 40 e6 ff ff       	callq  400c90 <close@plt>
  402650:	b8 ff ff ff ff       	mov    $0xffffffff,%eax
  402655:	eb 74                	jmp    4026cb <submitr+0x587>
  402657:	48 b8 45 72 72 6f 72 	movabs $0x43203a726f727245,%rax
  40265e:	3a 20 43 
  402661:	48 89 03             	mov    %rax,(%rbx)
  402664:	48 b8 6c 69 65 6e 74 	movabs $0x6e7520746e65696c,%rax
  40266b:	20 75 6e 
  40266e:	48 89 43 08          	mov    %rax,0x8(%rbx)
  402672:	48 b8 61 62 6c 65 20 	movabs $0x206f7420656c6261,%rax
  402679:	74 6f 20 
  40267c:	48 89 43 10          	mov    %rax,0x10(%rbx)
  402680:	48 b8 72 65 61 64 20 	movabs $0x6165682064616572,%rax
  402687:	68 65 61 
  40268a:	48 89 43 18          	mov    %rax,0x18(%rbx)
  40268e:	48 b8 64 65 72 73 20 	movabs $0x6f72662073726564,%rax
  402695:	66 72 6f 
  402698:	48 89 43 20          	mov    %rax,0x20(%rbx)
  40269c:	48 b8 6d 20 74 68 65 	movabs $0x657220656874206d,%rax
  4026a3:	20 72 65 
  4026a6:	48 89 43 28          	mov    %rax,0x28(%rbx)
  4026aa:	48 b8 73 75 6c 74 20 	movabs $0x72657320746c7573,%rax
  4026b1:	73 65 72 
  4026b4:	48 89 43 30          	mov    %rax,0x30(%rbx)
  4026b8:	c7 43 38 76 65 72 00 	movl   $0x726576,0x38(%rbx)
  4026bf:	89 ef                	mov    %ebp,%edi
  4026c1:	e8 ca e5 ff ff       	callq  400c90 <close@plt>
  4026c6:	b8 ff ff ff ff       	mov    $0xffffffff,%eax
  4026cb:	48 81 c4 58 a0 00 00 	add    $0xa058,%rsp
  4026d2:	5b                   	pop    %rbx
  4026d3:	5d                   	pop    %rbp
  4026d4:	41 5c                	pop    %r12
  4026d6:	41 5d                	pop    %r13
  4026d8:	41 5e                	pop    %r14
  4026da:	41 5f                	pop    %r15
  4026dc:	c3                   	retq   
  4026dd:	85 c0                	test   %eax,%eax
  4026df:	74 51                	je     402732 <submitr+0x5ee>
  4026e1:	48 8d b4 24 30 60 00 	lea    0x6030(%rsp),%rsi
  4026e8:	00 
  4026e9:	48 8d bc 24 30 80 00 	lea    0x8030(%rsp),%rdi
  4026f0:	00 
  4026f1:	ba 00 20 00 00       	mov    $0x2000,%edx
  4026f6:	e8 ca f9 ff ff       	callq  4020c5 <rio_readlineb>
  4026fb:	48 85 c0             	test   %rax,%rax
  4026fe:	0f 8e 53 ff ff ff    	jle    402657 <submitr+0x513>
  402704:	0f b6 94 24 30 60 00 	movzbl 0x6030(%rsp),%edx
  40270b:	00 
  40270c:	b8 0d 00 00 00       	mov    $0xd,%eax
  402711:	29 d0                	sub    %edx,%eax
  402713:	75 c8                	jne    4026dd <submitr+0x599>
  402715:	0f b6 94 24 31 60 00 	movzbl 0x6031(%rsp),%edx
  40271c:	00 
  40271d:	b8 0a 00 00 00       	mov    $0xa,%eax
  402722:	29 d0                	sub    %edx,%eax
  402724:	75 b7                	jne    4026dd <submitr+0x599>
  402726:	0f b6 84 24 32 60 00 	movzbl 0x6032(%rsp),%eax
  40272d:	00 
  40272e:	f7 d8                	neg    %eax
  402730:	eb ab                	jmp    4026dd <submitr+0x599>
  402732:	48 8d b4 24 30 60 00 	lea    0x6030(%rsp),%rsi
  402739:	00 
  40273a:	48 8d bc 24 30 80 00 	lea    0x8030(%rsp),%rdi
  402741:	00 
  402742:	ba 00 20 00 00       	mov    $0x2000,%edx
  402747:	e8 79 f9 ff ff       	callq  4020c5 <rio_readlineb>
  40274c:	48 85 c0             	test   %rax,%rax
  40274f:	7e 67                	jle    4027b8 <submitr+0x674>
  402751:	8b 94 24 2c 20 00 00 	mov    0x202c(%rsp),%edx
  402758:	81 fa c8 00 00 00    	cmp    $0xc8,%edx
  40275e:	0f 85 d7 00 00 00    	jne    40283b <submitr+0x6f7>
  402764:	48 8d b4 24 30 60 00 	lea    0x6030(%rsp),%rsi
  40276b:	00 
  40276c:	48 89 df             	mov    %rbx,%rdi
  40276f:	e8 ac e4 ff ff       	callq  400c20 <strcpy@plt>
  402774:	89 ef                	mov    %ebp,%edi
  402776:	e8 15 e5 ff ff       	callq  400c90 <close@plt>
  40277b:	0f b6 03             	movzbl (%rbx),%eax
  40277e:	ba 4f 00 00 00       	mov    $0x4f,%edx
  402783:	29 c2                	sub    %eax,%edx
  402785:	0f 85 da 00 00 00    	jne    402865 <submitr+0x721>
  40278b:	0f b6 4b 01          	movzbl 0x1(%rbx),%ecx
  40278f:	b8 4b 00 00 00       	mov    $0x4b,%eax
  402794:	29 c8                	sub    %ecx,%eax
  402796:	0f 85 cb 00 00 00    	jne    402867 <submitr+0x723>
  40279c:	0f b6 4b 02          	movzbl 0x2(%rbx),%ecx
  4027a0:	b8 0a 00 00 00       	mov    $0xa,%eax
  4027a5:	29 c8                	sub    %ecx,%eax
  4027a7:	0f 85 ba 00 00 00    	jne    402867 <submitr+0x723>
  4027ad:	0f b6 43 03          	movzbl 0x3(%rbx),%eax
  4027b1:	f7 d8                	neg    %eax
  4027b3:	e9 af 00 00 00       	jmpq   402867 <submitr+0x723>
  4027b8:	48 b8 45 72 72 6f 72 	movabs $0x43203a726f727245,%rax
  4027bf:	3a 20 43 
  4027c2:	48 89 03             	mov    %rax,(%rbx)
  4027c5:	48 b8 6c 69 65 6e 74 	movabs $0x6e7520746e65696c,%rax
  4027cc:	20 75 6e 
  4027cf:	48 89 43 08          	mov    %rax,0x8(%rbx)
  4027d3:	48 b8 61 62 6c 65 20 	movabs $0x206f7420656c6261,%rax
  4027da:	74 6f 20 
  4027dd:	48 89 43 10          	mov    %rax,0x10(%rbx)
  4027e1:	48 b8 72 65 61 64 20 	movabs $0x6174732064616572,%rax
  4027e8:	73 74 61 
  4027eb:	48 89 43 18          	mov    %rax,0x18(%rbx)
  4027ef:	48 b8 74 75 73 20 6d 	movabs $0x7373656d20737574,%rax
  4027f6:	65 73 73 
  4027f9:	48 89 43 20          	mov    %rax,0x20(%rbx)
  4027fd:	48 b8 61 67 65 20 66 	movabs $0x6d6f726620656761,%rax
  402804:	72 6f 6d 
  402807:	48 89 43 28          	mov    %rax,0x28(%rbx)
  40280b:	48 b8 20 72 65 73 75 	movabs $0x20746c7573657220,%rax
  402812:	6c 74 20 
  402815:	48 89 43 30          	mov    %rax,0x30(%rbx)
  402819:	c7 43 38 73 65 72 76 	movl   $0x76726573,0x38(%rbx)
  402820:	66 c7 43 3c 65 72    	movw   $0x7265,0x3c(%rbx)
  402826:	c6 43 3e 00          	movb   $0x0,0x3e(%rbx)
  40282a:	89 ef                	mov    %ebp,%edi
  40282c:	e8 5f e4 ff ff       	callq  400c90 <close@plt>
  402831:	b8 ff ff ff ff       	mov    $0xffffffff,%eax
  402836:	e9 90 fe ff ff       	jmpq   4026cb <submitr+0x587>
  40283b:	48 8d 4c 24 20       	lea    0x20(%rsp),%rcx
  402840:	48 8d 35 d1 0a 00 00 	lea    0xad1(%rip),%rsi        # 403318 <trans_char+0x78>
  402847:	48 89 df             	mov    %rbx,%rdi
  40284a:	b8 00 00 00 00       	mov    $0x0,%eax
  40284f:	e8 4c e5 ff ff       	callq  400da0 <sprintf@plt>
  402854:	89 ef                	mov    %ebp,%edi
  402856:	e8 35 e4 ff ff       	callq  400c90 <close@plt>
  40285b:	b8 ff ff ff ff       	mov    $0xffffffff,%eax
  402860:	e9 66 fe ff ff       	jmpq   4026cb <submitr+0x587>
  402865:	89 d0                	mov    %edx,%eax
  402867:	f7 d8                	neg    %eax
  402869:	0f 84 5c fe ff ff    	je     4026cb <submitr+0x587>
  40286f:	b9 05 00 00 00       	mov    $0x5,%ecx
  402874:	48 8d 3d e5 0a 00 00 	lea    0xae5(%rip),%rdi        # 403360 <trans_char+0xc0>
  40287b:	48 89 de             	mov    %rbx,%rsi
  40287e:	f3 a6                	repz cmpsb %es:(%rdi),%ds:(%rsi)
  402880:	0f 97 c0             	seta   %al
  402883:	0f 92 c1             	setb   %cl
  402886:	29 c8                	sub    %ecx,%eax
  402888:	0f be c0             	movsbl %al,%eax
  40288b:	85 c0                	test   %eax,%eax
  40288d:	0f 84 38 fe ff ff    	je     4026cb <submitr+0x587>
  402893:	85 d2                	test   %edx,%edx
  402895:	75 13                	jne    4028aa <submitr+0x766>
  402897:	0f b6 43 01          	movzbl 0x1(%rbx),%eax
  40289b:	ba 4b 00 00 00       	mov    $0x4b,%edx
  4028a0:	29 c2                	sub    %eax,%edx
  4028a2:	75 06                	jne    4028aa <submitr+0x766>
  4028a4:	0f b6 53 02          	movzbl 0x2(%rbx),%edx
  4028a8:	f7 da                	neg    %edx
  4028aa:	89 d0                	mov    %edx,%eax
  4028ac:	f7 d8                	neg    %eax
  4028ae:	0f 84 17 fe ff ff    	je     4026cb <submitr+0x587>
  4028b4:	b8 ff ff ff ff       	mov    $0xffffffff,%eax
  4028b9:	e9 0d fe ff ff       	jmpq   4026cb <submitr+0x587>

00000000004028be <init_timeout>:
  4028be:	85 ff                	test   %edi,%edi
  4028c0:	74 20                	je     4028e2 <init_timeout+0x24>
  4028c2:	53                   	push   %rbx
  4028c3:	89 fb                	mov    %edi,%ebx
  4028c5:	85 ff                	test   %edi,%edi
  4028c7:	78 1b                	js     4028e4 <init_timeout+0x26>
  4028c9:	48 8d 35 05 f6 ff ff 	lea    -0x9fb(%rip),%rsi        # 401ed5 <sigalrm_handler>
  4028d0:	bf 0e 00 00 00       	mov    $0xe,%edi
  4028d5:	e8 d6 e3 ff ff       	callq  400cb0 <signal@plt>
  4028da:	89 df                	mov    %ebx,%edi
  4028dc:	e8 9f e3 ff ff       	callq  400c80 <alarm@plt>
  4028e1:	5b                   	pop    %rbx
  4028e2:	f3 c3                	repz retq 
  4028e4:	bb 00 00 00 00       	mov    $0x0,%ebx
  4028e9:	eb de                	jmp    4028c9 <init_timeout+0xb>

00000000004028eb <init_driver>:
  4028eb:	41 54                	push   %r12
  4028ed:	55                   	push   %rbp
  4028ee:	53                   	push   %rbx
  4028ef:	48 83 ec 10          	sub    $0x10,%rsp
  4028f3:	48 89 fd             	mov    %rdi,%rbp
  4028f6:	be 01 00 00 00       	mov    $0x1,%esi
  4028fb:	bf 0d 00 00 00       	mov    $0xd,%edi
  402900:	e8 ab e3 ff ff       	callq  400cb0 <signal@plt>
  402905:	be 01 00 00 00       	mov    $0x1,%esi
  40290a:	bf 1d 00 00 00       	mov    $0x1d,%edi
  40290f:	e8 9c e3 ff ff       	callq  400cb0 <signal@plt>
  402914:	be 01 00 00 00       	mov    $0x1,%esi
  402919:	bf 1d 00 00 00       	mov    $0x1d,%edi
  40291e:	e8 8d e3 ff ff       	callq  400cb0 <signal@plt>
  402923:	ba 00 00 00 00       	mov    $0x0,%edx
  402928:	be 01 00 00 00       	mov    $0x1,%esi
  40292d:	bf 02 00 00 00       	mov    $0x2,%edi
  402932:	e8 99 e4 ff ff       	callq  400dd0 <socket@plt>
  402937:	85 c0                	test   %eax,%eax
  402939:	0f 88 80 00 00 00    	js     4029bf <init_driver+0xd4>
  40293f:	89 c3                	mov    %eax,%ebx
  402941:	48 8d 3d 59 05 00 00 	lea    0x559(%rip),%rdi        # 402ea1 <_IO_stdin_used+0x291>
  402948:	e8 73 e3 ff ff       	callq  400cc0 <gethostbyname@plt>
  40294d:	48 85 c0             	test   %rax,%rax
  402950:	0f 84 b5 00 00 00    	je     402a0b <init_driver+0x120>
  402956:	48 c7 04 24 00 00 00 	movq   $0x0,(%rsp)
  40295d:	00 
  40295e:	48 c7 44 24 08 00 00 	movq   $0x0,0x8(%rsp)
  402965:	00 00 
  402967:	66 c7 04 24 02 00    	movw   $0x2,(%rsp)
  40296d:	48 8b 48 18          	mov    0x18(%rax),%rcx
  402971:	48 63 50 14          	movslq 0x14(%rax),%rdx
  402975:	48 8d 74 24 04       	lea    0x4(%rsp),%rsi
  40297a:	48 8b 39             	mov    (%rcx),%rdi
  40297d:	e8 ce e3 ff ff       	callq  400d50 <bcopy@plt>
  402982:	66 c7 44 24 02 3c 9a 	movw   $0x9a3c,0x2(%rsp)
  402989:	ba 10 00 00 00       	mov    $0x10,%edx
  40298e:	48 89 e6             	mov    %rsp,%rsi
  402991:	89 df                	mov    %ebx,%edi
  402993:	e8 28 e4 ff ff       	callq  400dc0 <connect@plt>
  402998:	85 c0                	test   %eax,%eax
  40299a:	0f 88 d3 00 00 00    	js     402a73 <init_driver+0x188>
  4029a0:	89 df                	mov    %ebx,%edi
  4029a2:	e8 e9 e2 ff ff       	callq  400c90 <close@plt>
  4029a7:	66 c7 45 00 4f 4b    	movw   $0x4b4f,0x0(%rbp)
  4029ad:	c6 45 02 00          	movb   $0x0,0x2(%rbp)
  4029b1:	b8 00 00 00 00       	mov    $0x0,%eax
  4029b6:	48 83 c4 10          	add    $0x10,%rsp
  4029ba:	5b                   	pop    %rbx
  4029bb:	5d                   	pop    %rbp
  4029bc:	41 5c                	pop    %r12
  4029be:	c3                   	retq   
  4029bf:	48 b8 45 72 72 6f 72 	movabs $0x43203a726f727245,%rax
  4029c6:	3a 20 43 
  4029c9:	48 89 45 00          	mov    %rax,0x0(%rbp)
  4029cd:	48 b8 6c 69 65 6e 74 	movabs $0x6e7520746e65696c,%rax
  4029d4:	20 75 6e 
  4029d7:	48 89 45 08          	mov    %rax,0x8(%rbp)
  4029db:	48 b8 61 62 6c 65 20 	movabs $0x206f7420656c6261,%rax
  4029e2:	74 6f 20 
  4029e5:	48 89 45 10          	mov    %rax,0x10(%rbp)
  4029e9:	48 b8 63 72 65 61 74 	movabs $0x7320657461657263,%rax
  4029f0:	65 20 73 
  4029f3:	48 89 45 18          	mov    %rax,0x18(%rbp)
  4029f7:	c7 45 20 6f 63 6b 65 	movl   $0x656b636f,0x20(%rbp)
  4029fe:	66 c7 45 24 74 00    	movw   $0x74,0x24(%rbp)
  402a04:	b8 ff ff ff ff       	mov    $0xffffffff,%eax
  402a09:	eb ab                	jmp    4029b6 <init_driver+0xcb>
  402a0b:	48 b8 45 72 72 6f 72 	movabs $0x44203a726f727245,%rax
  402a12:	3a 20 44 
  402a15:	48 89 45 00          	mov    %rax,0x0(%rbp)
  402a19:	48 b8 4e 53 20 69 73 	movabs $0x6e7520736920534e,%rax
  402a20:	20 75 6e 
  402a23:	48 89 45 08          	mov    %rax,0x8(%rbp)
  402a27:	48 b8 61 62 6c 65 20 	movabs $0x206f7420656c6261,%rax
  402a2e:	74 6f 20 
  402a31:	48 89 45 10          	mov    %rax,0x10(%rbp)
  402a35:	48 b8 72 65 73 6f 6c 	movabs $0x2065766c6f736572,%rax
  402a3c:	76 65 20 
  402a3f:	48 89 45 18          	mov    %rax,0x18(%rbp)
  402a43:	48 b8 73 65 72 76 65 	movabs $0x6120726576726573,%rax
  402a4a:	72 20 61 
  402a4d:	48 89 45 20          	mov    %rax,0x20(%rbp)
  402a51:	c7 45 28 64 64 72 65 	movl   $0x65726464,0x28(%rbp)
  402a58:	66 c7 45 2c 73 73    	movw   $0x7373,0x2c(%rbp)
  402a5e:	c6 45 2e 00          	movb   $0x0,0x2e(%rbp)
  402a62:	89 df                	mov    %ebx,%edi
  402a64:	e8 27 e2 ff ff       	callq  400c90 <close@plt>
  402a69:	b8 ff ff ff ff       	mov    $0xffffffff,%eax
  402a6e:	e9 43 ff ff ff       	jmpq   4029b6 <init_driver+0xcb>
  402a73:	48 b8 45 72 72 6f 72 	movabs $0x55203a726f727245,%rax
  402a7a:	3a 20 55 
  402a7d:	48 89 45 00          	mov    %rax,0x0(%rbp)
  402a81:	48 b8 6e 61 62 6c 65 	movabs $0x6f7420656c62616e,%rax
  402a88:	20 74 6f 
  402a8b:	48 89 45 08          	mov    %rax,0x8(%rbp)
  402a8f:	48 b8 20 63 6f 6e 6e 	movabs $0x7463656e6e6f6320,%rax
  402a96:	65 63 74 
  402a99:	48 89 45 10          	mov    %rax,0x10(%rbp)
  402a9d:	48 b8 20 74 6f 20 73 	movabs $0x76726573206f7420,%rax
  402aa4:	65 72 76 
  402aa7:	48 89 45 18          	mov    %rax,0x18(%rbp)
  402aab:	66 c7 45 20 65 72    	movw   $0x7265,0x20(%rbp)
  402ab1:	c6 45 22 00          	movb   $0x0,0x22(%rbp)
  402ab5:	89 df                	mov    %ebx,%edi
  402ab7:	e8 d4 e1 ff ff       	callq  400c90 <close@plt>
  402abc:	b8 ff ff ff ff       	mov    $0xffffffff,%eax
  402ac1:	e9 f0 fe ff ff       	jmpq   4029b6 <init_driver+0xcb>

0000000000402ac6 <driver_post>:
  402ac6:	53                   	push   %rbx
  402ac7:	4c 89 cb             	mov    %r9,%rbx
  402aca:	45 85 c0             	test   %r8d,%r8d
  402acd:	75 18                	jne    402ae7 <driver_post+0x21>
  402acf:	48 85 ff             	test   %rdi,%rdi
  402ad2:	74 05                	je     402ad9 <driver_post+0x13>
  402ad4:	80 3f 00             	cmpb   $0x0,(%rdi)
  402ad7:	75 32                	jne    402b0b <driver_post+0x45>
  402ad9:	66 c7 03 4f 4b       	movw   $0x4b4f,(%rbx)
  402ade:	c6 43 02 00          	movb   $0x0,0x2(%rbx)
  402ae2:	44 89 c0             	mov    %r8d,%eax
  402ae5:	5b                   	pop    %rbx
  402ae6:	c3                   	retq   
  402ae7:	48 89 ce             	mov    %rcx,%rsi
  402aea:	48 8d 3d 74 08 00 00 	lea    0x874(%rip),%rdi        # 403365 <trans_char+0xc5>
  402af1:	b8 00 00 00 00       	mov    $0x0,%eax
  402af6:	e8 65 e1 ff ff       	callq  400c60 <printf@plt>
  402afb:	66 c7 03 4f 4b       	movw   $0x4b4f,(%rbx)
  402b00:	c6 43 02 00          	movb   $0x0,0x2(%rbx)
  402b04:	b8 00 00 00 00       	mov    $0x0,%eax
  402b09:	eb da                	jmp    402ae5 <driver_post+0x1f>
  402b0b:	48 83 ec 08          	sub    $0x8,%rsp
  402b0f:	41 51                	push   %r9
  402b11:	49 89 c9             	mov    %rcx,%r9
  402b14:	49 89 d0             	mov    %rdx,%r8
  402b17:	48 89 f9             	mov    %rdi,%rcx
  402b1a:	48 89 f2             	mov    %rsi,%rdx
  402b1d:	be 9a 3c 00 00       	mov    $0x3c9a,%esi
  402b22:	48 8d 3d 78 03 00 00 	lea    0x378(%rip),%rdi        # 402ea1 <_IO_stdin_used+0x291>
  402b29:	e8 16 f6 ff ff       	callq  402144 <submitr>
  402b2e:	48 83 c4 10          	add    $0x10,%rsp
  402b32:	eb b1                	jmp    402ae5 <driver_post+0x1f>

0000000000402b34 <check>:
  402b34:	89 f8                	mov    %edi,%eax
  402b36:	c1 e8 1c             	shr    $0x1c,%eax
  402b39:	85 c0                	test   %eax,%eax
  402b3b:	74 1d                	je     402b5a <check+0x26>
  402b3d:	b9 00 00 00 00       	mov    $0x0,%ecx
  402b42:	83 f9 1f             	cmp    $0x1f,%ecx
  402b45:	7f 0d                	jg     402b54 <check+0x20>
  402b47:	89 f8                	mov    %edi,%eax
  402b49:	d3 e8                	shr    %cl,%eax
  402b4b:	3c 0a                	cmp    $0xa,%al
  402b4d:	74 11                	je     402b60 <check+0x2c>
  402b4f:	83 c1 08             	add    $0x8,%ecx
  402b52:	eb ee                	jmp    402b42 <check+0xe>
  402b54:	b8 01 00 00 00       	mov    $0x1,%eax
  402b59:	c3                   	retq   
  402b5a:	b8 00 00 00 00       	mov    $0x0,%eax
  402b5f:	c3                   	retq   
  402b60:	b8 00 00 00 00       	mov    $0x0,%eax
  402b65:	c3                   	retq   

0000000000402b66 <gencookie>:
  402b66:	53                   	push   %rbx
  402b67:	83 c7 01             	add    $0x1,%edi
  402b6a:	e8 91 e0 ff ff       	callq  400c00 <srandom@plt>
  402b6f:	e8 9c e1 ff ff       	callq  400d10 <random@plt>
  402b74:	89 c3                	mov    %eax,%ebx
  402b76:	89 c7                	mov    %eax,%edi
  402b78:	e8 b7 ff ff ff       	callq  402b34 <check>
  402b7d:	85 c0                	test   %eax,%eax
  402b7f:	74 ee                	je     402b6f <gencookie+0x9>
  402b81:	89 d8                	mov    %ebx,%eax
  402b83:	5b                   	pop    %rbx
  402b84:	c3                   	retq   
  402b85:	66 2e 0f 1f 84 00 00 	nopw   %cs:0x0(%rax,%rax,1)
  402b8c:	00 00 00 
  402b8f:	90                   	nop

0000000000402b90 <__libc_csu_init>:
  402b90:	41 57                	push   %r15
  402b92:	41 56                	push   %r14
  402b94:	41 89 ff             	mov    %edi,%r15d
  402b97:	41 55                	push   %r13
  402b99:	41 54                	push   %r12
  402b9b:	4c 8d 25 66 12 20 00 	lea    0x201266(%rip),%r12        # 603e08 <__frame_dummy_init_array_entry>
  402ba2:	55                   	push   %rbp
  402ba3:	48 8d 2d 66 12 20 00 	lea    0x201266(%rip),%rbp        # 603e10 <__init_array_end>
  402baa:	53                   	push   %rbx
  402bab:	49 89 f6             	mov    %rsi,%r14
  402bae:	49 89 d5             	mov    %rdx,%r13
  402bb1:	4c 29 e5             	sub    %r12,%rbp
  402bb4:	48 83 ec 08          	sub    $0x8,%rsp
  402bb8:	48 c1 fd 03          	sar    $0x3,%rbp
  402bbc:	e8 ef df ff ff       	callq  400bb0 <_init>
  402bc1:	48 85 ed             	test   %rbp,%rbp
  402bc4:	74 20                	je     402be6 <__libc_csu_init+0x56>
  402bc6:	31 db                	xor    %ebx,%ebx
  402bc8:	0f 1f 84 00 00 00 00 	nopl   0x0(%rax,%rax,1)
  402bcf:	00 
  402bd0:	4c 89 ea             	mov    %r13,%rdx
  402bd3:	4c 89 f6             	mov    %r14,%rsi
  402bd6:	44 89 ff             	mov    %r15d,%edi
  402bd9:	41 ff 14 dc          	callq  *(%r12,%rbx,8)
  402bdd:	48 83 c3 01          	add    $0x1,%rbx
  402be1:	48 39 dd             	cmp    %rbx,%rbp
  402be4:	75 ea                	jne    402bd0 <__libc_csu_init+0x40>
  402be6:	48 83 c4 08          	add    $0x8,%rsp
  402bea:	5b                   	pop    %rbx
  402beb:	5d                   	pop    %rbp
  402bec:	41 5c                	pop    %r12
  402bee:	41 5d                	pop    %r13
  402bf0:	41 5e                	pop    %r14
  402bf2:	41 5f                	pop    %r15
  402bf4:	c3                   	retq   
  402bf5:	90                   	nop
  402bf6:	66 2e 0f 1f 84 00 00 	nopw   %cs:0x0(%rax,%rax,1)
  402bfd:	00 00 00 

0000000000402c00 <__libc_csu_fini>:
  402c00:	f3 c3                	repz retq 

Disassembly of section .fini:

0000000000402c04 <_fini>:
  402c04:	48 83 ec 08          	sub    $0x8,%rsp
  402c08:	48 83 c4 08          	add    $0x8,%rsp
  402c0c:	c3                   	retq   
