
ctarget:     file format elf64-x86-64


Disassembly of section .init:

0000000000400bb0 <_init>:
  400bb0:	48 83 ec 08          	sub    $0x8,%rsp
  400bb4:	48 8b 05 3d 34 20 00 	mov    0x20343d(%rip),%rax        # 603ff8 <_DYNAMIC+0x1d8>
  400bbb:	48 85 c0             	test   %rax,%rax
  400bbe:	74 02                	je     400bc2 <_init+0x12>
  400bc0:	ff d0                	callq  *%rax
  400bc2:	48 83 c4 08          	add    $0x8,%rsp
  400bc6:	c3                   	retq   

Disassembly of section .plt:

0000000000400bd0 <strcasecmp@plt-0x10>:
  400bd0:	ff 35 32 34 20 00    	pushq  0x203432(%rip)        # 604008 <_GLOBAL_OFFSET_TABLE_+0x8>
  400bd6:	ff 25 34 34 20 00    	jmpq   *0x203434(%rip)        # 604010 <_GLOBAL_OFFSET_TABLE_+0x10>
  400bdc:	0f 1f 40 00          	nopl   0x0(%rax)

0000000000400be0 <strcasecmp@plt>:
  400be0:	ff 25 32 34 20 00    	jmpq   *0x203432(%rip)        # 604018 <_GLOBAL_OFFSET_TABLE_+0x18>
  400be6:	68 00 00 00 00       	pushq  $0x0
  400beb:	e9 e0 ff ff ff       	jmpq   400bd0 <_init+0x20>

0000000000400bf0 <__errno_location@plt>:
  400bf0:	ff 25 2a 34 20 00    	jmpq   *0x20342a(%rip)        # 604020 <_GLOBAL_OFFSET_TABLE_+0x20>
  400bf6:	68 01 00 00 00       	pushq  $0x1
  400bfb:	e9 d0 ff ff ff       	jmpq   400bd0 <_init+0x20>

0000000000400c00 <srandom@plt>:
  400c00:	ff 25 22 34 20 00    	jmpq   *0x203422(%rip)        # 604028 <_GLOBAL_OFFSET_TABLE_+0x28>
  400c06:	68 02 00 00 00       	pushq  $0x2
  400c0b:	e9 c0 ff ff ff       	jmpq   400bd0 <_init+0x20>

0000000000400c10 <strncmp@plt>:
  400c10:	ff 25 1a 34 20 00    	jmpq   *0x20341a(%rip)        # 604030 <_GLOBAL_OFFSET_TABLE_+0x30>
  400c16:	68 03 00 00 00       	pushq  $0x3
  400c1b:	e9 b0 ff ff ff       	jmpq   400bd0 <_init+0x20>

0000000000400c20 <strcpy@plt>:
  400c20:	ff 25 12 34 20 00    	jmpq   *0x203412(%rip)        # 604038 <_GLOBAL_OFFSET_TABLE_+0x38>
  400c26:	68 04 00 00 00       	pushq  $0x4
  400c2b:	e9 a0 ff ff ff       	jmpq   400bd0 <_init+0x20>

0000000000400c30 <puts@plt>:
  400c30:	ff 25 0a 34 20 00    	jmpq   *0x20340a(%rip)        # 604040 <_GLOBAL_OFFSET_TABLE_+0x40>
  400c36:	68 05 00 00 00       	pushq  $0x5
  400c3b:	e9 90 ff ff ff       	jmpq   400bd0 <_init+0x20>

0000000000400c40 <write@plt>:
  400c40:	ff 25 02 34 20 00    	jmpq   *0x203402(%rip)        # 604048 <_GLOBAL_OFFSET_TABLE_+0x48>
  400c46:	68 06 00 00 00       	pushq  $0x6
  400c4b:	e9 80 ff ff ff       	jmpq   400bd0 <_init+0x20>

0000000000400c50 <mmap@plt>:
  400c50:	ff 25 fa 33 20 00    	jmpq   *0x2033fa(%rip)        # 604050 <_GLOBAL_OFFSET_TABLE_+0x50>
  400c56:	68 07 00 00 00       	pushq  $0x7
  400c5b:	e9 70 ff ff ff       	jmpq   400bd0 <_init+0x20>

0000000000400c60 <printf@plt>:
  400c60:	ff 25 f2 33 20 00    	jmpq   *0x2033f2(%rip)        # 604058 <_GLOBAL_OFFSET_TABLE_+0x58>
  400c66:	68 08 00 00 00       	pushq  $0x8
  400c6b:	e9 60 ff ff ff       	jmpq   400bd0 <_init+0x20>

0000000000400c70 <memset@plt>:
  400c70:	ff 25 ea 33 20 00    	jmpq   *0x2033ea(%rip)        # 604060 <_GLOBAL_OFFSET_TABLE_+0x60>
  400c76:	68 09 00 00 00       	pushq  $0x9
  400c7b:	e9 50 ff ff ff       	jmpq   400bd0 <_init+0x20>

0000000000400c80 <alarm@plt>:
  400c80:	ff 25 e2 33 20 00    	jmpq   *0x2033e2(%rip)        # 604068 <_GLOBAL_OFFSET_TABLE_+0x68>
  400c86:	68 0a 00 00 00       	pushq  $0xa
  400c8b:	e9 40 ff ff ff       	jmpq   400bd0 <_init+0x20>

0000000000400c90 <close@plt>:
  400c90:	ff 25 da 33 20 00    	jmpq   *0x2033da(%rip)        # 604070 <_GLOBAL_OFFSET_TABLE_+0x70>
  400c96:	68 0b 00 00 00       	pushq  $0xb
  400c9b:	e9 30 ff ff ff       	jmpq   400bd0 <_init+0x20>

0000000000400ca0 <read@plt>:
  400ca0:	ff 25 d2 33 20 00    	jmpq   *0x2033d2(%rip)        # 604078 <_GLOBAL_OFFSET_TABLE_+0x78>
  400ca6:	68 0c 00 00 00       	pushq  $0xc
  400cab:	e9 20 ff ff ff       	jmpq   400bd0 <_init+0x20>

0000000000400cb0 <signal@plt>:
  400cb0:	ff 25 ca 33 20 00    	jmpq   *0x2033ca(%rip)        # 604080 <_GLOBAL_OFFSET_TABLE_+0x80>
  400cb6:	68 0d 00 00 00       	pushq  $0xd
  400cbb:	e9 10 ff ff ff       	jmpq   400bd0 <_init+0x20>

0000000000400cc0 <gethostbyname@plt>:
  400cc0:	ff 25 c2 33 20 00    	jmpq   *0x2033c2(%rip)        # 604088 <_GLOBAL_OFFSET_TABLE_+0x88>
  400cc6:	68 0e 00 00 00       	pushq  $0xe
  400ccb:	e9 00 ff ff ff       	jmpq   400bd0 <_init+0x20>

0000000000400cd0 <fprintf@plt>:
  400cd0:	ff 25 ba 33 20 00    	jmpq   *0x2033ba(%rip)        # 604090 <_GLOBAL_OFFSET_TABLE_+0x90>
  400cd6:	68 0f 00 00 00       	pushq  $0xf
  400cdb:	e9 f0 fe ff ff       	jmpq   400bd0 <_init+0x20>

0000000000400ce0 <strtol@plt>:
  400ce0:	ff 25 b2 33 20 00    	jmpq   *0x2033b2(%rip)        # 604098 <_GLOBAL_OFFSET_TABLE_+0x98>
  400ce6:	68 10 00 00 00       	pushq  $0x10
  400ceb:	e9 e0 fe ff ff       	jmpq   400bd0 <_init+0x20>

0000000000400cf0 <memcpy@plt>:
  400cf0:	ff 25 aa 33 20 00    	jmpq   *0x2033aa(%rip)        # 6040a0 <_GLOBAL_OFFSET_TABLE_+0xa0>
  400cf6:	68 11 00 00 00       	pushq  $0x11
  400cfb:	e9 d0 fe ff ff       	jmpq   400bd0 <_init+0x20>

0000000000400d00 <time@plt>:
  400d00:	ff 25 a2 33 20 00    	jmpq   *0x2033a2(%rip)        # 6040a8 <_GLOBAL_OFFSET_TABLE_+0xa8>
  400d06:	68 12 00 00 00       	pushq  $0x12
  400d0b:	e9 c0 fe ff ff       	jmpq   400bd0 <_init+0x20>

0000000000400d10 <random@plt>:
  400d10:	ff 25 9a 33 20 00    	jmpq   *0x20339a(%rip)        # 6040b0 <_GLOBAL_OFFSET_TABLE_+0xb0>
  400d16:	68 13 00 00 00       	pushq  $0x13
  400d1b:	e9 b0 fe ff ff       	jmpq   400bd0 <_init+0x20>

0000000000400d20 <_IO_getc@plt>:
  400d20:	ff 25 92 33 20 00    	jmpq   *0x203392(%rip)        # 6040b8 <_GLOBAL_OFFSET_TABLE_+0xb8>
  400d26:	68 14 00 00 00       	pushq  $0x14
  400d2b:	e9 a0 fe ff ff       	jmpq   400bd0 <_init+0x20>

0000000000400d30 <__isoc99_sscanf@plt>:
  400d30:	ff 25 8a 33 20 00    	jmpq   *0x20338a(%rip)        # 6040c0 <_GLOBAL_OFFSET_TABLE_+0xc0>
  400d36:	68 15 00 00 00       	pushq  $0x15
  400d3b:	e9 90 fe ff ff       	jmpq   400bd0 <_init+0x20>

0000000000400d40 <munmap@plt>:
  400d40:	ff 25 82 33 20 00    	jmpq   *0x203382(%rip)        # 6040c8 <_GLOBAL_OFFSET_TABLE_+0xc8>
  400d46:	68 16 00 00 00       	pushq  $0x16
  400d4b:	e9 80 fe ff ff       	jmpq   400bd0 <_init+0x20>

0000000000400d50 <bcopy@plt>:
  400d50:	ff 25 7a 33 20 00    	jmpq   *0x20337a(%rip)        # 6040d0 <_GLOBAL_OFFSET_TABLE_+0xd0>
  400d56:	68 17 00 00 00       	pushq  $0x17
  400d5b:	e9 70 fe ff ff       	jmpq   400bd0 <_init+0x20>

0000000000400d60 <fopen@plt>:
  400d60:	ff 25 72 33 20 00    	jmpq   *0x203372(%rip)        # 6040d8 <_GLOBAL_OFFSET_TABLE_+0xd8>
  400d66:	68 18 00 00 00       	pushq  $0x18
  400d6b:	e9 60 fe ff ff       	jmpq   400bd0 <_init+0x20>

0000000000400d70 <getopt@plt>:
  400d70:	ff 25 6a 33 20 00    	jmpq   *0x20336a(%rip)        # 6040e0 <_GLOBAL_OFFSET_TABLE_+0xe0>
  400d76:	68 19 00 00 00       	pushq  $0x19
  400d7b:	e9 50 fe ff ff       	jmpq   400bd0 <_init+0x20>

0000000000400d80 <strtoul@plt>:
  400d80:	ff 25 62 33 20 00    	jmpq   *0x203362(%rip)        # 6040e8 <_GLOBAL_OFFSET_TABLE_+0xe8>
  400d86:	68 1a 00 00 00       	pushq  $0x1a
  400d8b:	e9 40 fe ff ff       	jmpq   400bd0 <_init+0x20>

0000000000400d90 <gethostname@plt>:
  400d90:	ff 25 5a 33 20 00    	jmpq   *0x20335a(%rip)        # 6040f0 <_GLOBAL_OFFSET_TABLE_+0xf0>
  400d96:	68 1b 00 00 00       	pushq  $0x1b
  400d9b:	e9 30 fe ff ff       	jmpq   400bd0 <_init+0x20>

0000000000400da0 <sprintf@plt>:
  400da0:	ff 25 52 33 20 00    	jmpq   *0x203352(%rip)        # 6040f8 <_GLOBAL_OFFSET_TABLE_+0xf8>
  400da6:	68 1c 00 00 00       	pushq  $0x1c
  400dab:	e9 20 fe ff ff       	jmpq   400bd0 <_init+0x20>

0000000000400db0 <exit@plt>:
  400db0:	ff 25 4a 33 20 00    	jmpq   *0x20334a(%rip)        # 604100 <_GLOBAL_OFFSET_TABLE_+0x100>
  400db6:	68 1d 00 00 00       	pushq  $0x1d
  400dbb:	e9 10 fe ff ff       	jmpq   400bd0 <_init+0x20>

0000000000400dc0 <connect@plt>:
  400dc0:	ff 25 42 33 20 00    	jmpq   *0x203342(%rip)        # 604108 <_GLOBAL_OFFSET_TABLE_+0x108>
  400dc6:	68 1e 00 00 00       	pushq  $0x1e
  400dcb:	e9 00 fe ff ff       	jmpq   400bd0 <_init+0x20>

0000000000400dd0 <socket@plt>:
  400dd0:	ff 25 3a 33 20 00    	jmpq   *0x20333a(%rip)        # 604110 <_GLOBAL_OFFSET_TABLE_+0x110>
  400dd6:	68 1f 00 00 00       	pushq  $0x1f
  400ddb:	e9 f0 fd ff ff       	jmpq   400bd0 <_init+0x20>

Disassembly of section .text:

0000000000400de0 <_start>:
  400de0:	31 ed                	xor    %ebp,%ebp
  400de2:	49 89 d1             	mov    %rdx,%r9
  400de5:	5e                   	pop    %rsi
  400de6:	48 89 e2             	mov    %rsp,%rdx
  400de9:	48 83 e4 f0          	and    $0xfffffffffffffff0,%rsp
  400ded:	50                   	push   %rax
  400dee:	54                   	push   %rsp
  400def:	49 c7 c0 30 2c 40 00 	mov    $0x402c30,%r8
  400df6:	48 c7 c1 c0 2b 40 00 	mov    $0x402bc0,%rcx
  400dfd:	48 c7 c7 8d 10 40 00 	mov    $0x40108d,%rdi
  400e04:	ff 15 e6 31 20 00    	callq  *0x2031e6(%rip)        # 603ff0 <_DYNAMIC+0x1d0>
  400e0a:	f4                   	hlt    
  400e0b:	0f 1f 44 00 00       	nopl   0x0(%rax,%rax,1)

0000000000400e10 <deregister_tm_clones>:
  400e10:	b8 97 44 60 00       	mov    $0x604497,%eax
  400e15:	55                   	push   %rbp
  400e16:	48 2d 90 44 60 00    	sub    $0x604490,%rax
  400e1c:	48 83 f8 0e          	cmp    $0xe,%rax
  400e20:	48 89 e5             	mov    %rsp,%rbp
  400e23:	76 1b                	jbe    400e40 <deregister_tm_clones+0x30>
  400e25:	b8 00 00 00 00       	mov    $0x0,%eax
  400e2a:	48 85 c0             	test   %rax,%rax
  400e2d:	74 11                	je     400e40 <deregister_tm_clones+0x30>
  400e2f:	5d                   	pop    %rbp
  400e30:	bf 90 44 60 00       	mov    $0x604490,%edi
  400e35:	ff e0                	jmpq   *%rax
  400e37:	66 0f 1f 84 00 00 00 	nopw   0x0(%rax,%rax,1)
  400e3e:	00 00 
  400e40:	5d                   	pop    %rbp
  400e41:	c3                   	retq   
  400e42:	0f 1f 40 00          	nopl   0x0(%rax)
  400e46:	66 2e 0f 1f 84 00 00 	nopw   %cs:0x0(%rax,%rax,1)
  400e4d:	00 00 00 

0000000000400e50 <register_tm_clones>:
  400e50:	be 90 44 60 00       	mov    $0x604490,%esi
  400e55:	55                   	push   %rbp
  400e56:	48 81 ee 90 44 60 00 	sub    $0x604490,%rsi
  400e5d:	48 c1 fe 03          	sar    $0x3,%rsi
  400e61:	48 89 e5             	mov    %rsp,%rbp
  400e64:	48 89 f0             	mov    %rsi,%rax
  400e67:	48 c1 e8 3f          	shr    $0x3f,%rax
  400e6b:	48 01 c6             	add    %rax,%rsi
  400e6e:	48 d1 fe             	sar    %rsi
  400e71:	74 15                	je     400e88 <register_tm_clones+0x38>
  400e73:	b8 00 00 00 00       	mov    $0x0,%eax
  400e78:	48 85 c0             	test   %rax,%rax
  400e7b:	74 0b                	je     400e88 <register_tm_clones+0x38>
  400e7d:	5d                   	pop    %rbp
  400e7e:	bf 90 44 60 00       	mov    $0x604490,%edi
  400e83:	ff e0                	jmpq   *%rax
  400e85:	0f 1f 00             	nopl   (%rax)
  400e88:	5d                   	pop    %rbp
  400e89:	c3                   	retq   
  400e8a:	66 0f 1f 44 00 00    	nopw   0x0(%rax,%rax,1)

0000000000400e90 <__do_global_dtors_aux>:
  400e90:	80 3d 31 36 20 00 00 	cmpb   $0x0,0x203631(%rip)        # 6044c8 <completed.6963>
  400e97:	75 11                	jne    400eaa <__do_global_dtors_aux+0x1a>
  400e99:	55                   	push   %rbp
  400e9a:	48 89 e5             	mov    %rsp,%rbp
  400e9d:	e8 6e ff ff ff       	callq  400e10 <deregister_tm_clones>
  400ea2:	5d                   	pop    %rbp
  400ea3:	c6 05 1e 36 20 00 01 	movb   $0x1,0x20361e(%rip)        # 6044c8 <completed.6963>
  400eaa:	f3 c3                	repz retq 
  400eac:	0f 1f 40 00          	nopl   0x0(%rax)

0000000000400eb0 <frame_dummy>:
  400eb0:	bf 18 3e 60 00       	mov    $0x603e18,%edi
  400eb5:	48 83 3f 00          	cmpq   $0x0,(%rdi)
  400eb9:	75 05                	jne    400ec0 <frame_dummy+0x10>
  400ebb:	eb 93                	jmp    400e50 <register_tm_clones>
  400ebd:	0f 1f 00             	nopl   (%rax)
  400ec0:	b8 00 00 00 00       	mov    $0x0,%eax
  400ec5:	48 85 c0             	test   %rax,%rax
  400ec8:	74 f1                	je     400ebb <frame_dummy+0xb>
  400eca:	55                   	push   %rbp
  400ecb:	48 89 e5             	mov    %rsp,%rbp
  400ece:	ff d0                	callq  *%rax
  400ed0:	5d                   	pop    %rbp
  400ed1:	e9 7a ff ff ff       	jmpq   400e50 <register_tm_clones>

0000000000400ed6 <usage>:
  400ed6:	48 83 ec 08          	sub    $0x8,%rsp
  400eda:	48 89 fe             	mov    %rdi,%rsi
  400edd:	83 3d 24 36 20 00 00 	cmpl   $0x0,0x203624(%rip)        # 604508 <is_checker>
  400ee4:	74 4b                	je     400f31 <usage+0x5b>
  400ee6:	48 8d 3d 5b 1d 00 00 	lea    0x1d5b(%rip),%rdi        # 402c48 <_IO_stdin_used+0x8>
  400eed:	b8 00 00 00 00       	mov    $0x0,%eax
  400ef2:	e8 69 fd ff ff       	callq  400c60 <printf@plt>
  400ef7:	48 8d 3d 82 1d 00 00 	lea    0x1d82(%rip),%rdi        # 402c80 <_IO_stdin_used+0x40>
  400efe:	e8 2d fd ff ff       	callq  400c30 <puts@plt>
  400f03:	48 8d 3d ae 1e 00 00 	lea    0x1eae(%rip),%rdi        # 402db8 <_IO_stdin_used+0x178>
  400f0a:	e8 21 fd ff ff       	callq  400c30 <puts@plt>
  400f0f:	48 8d 3d 92 1d 00 00 	lea    0x1d92(%rip),%rdi        # 402ca8 <_IO_stdin_used+0x68>
  400f16:	e8 15 fd ff ff       	callq  400c30 <puts@plt>
  400f1b:	48 8d 3d b0 1e 00 00 	lea    0x1eb0(%rip),%rdi        # 402dd2 <_IO_stdin_used+0x192>
  400f22:	e8 09 fd ff ff       	callq  400c30 <puts@plt>
  400f27:	bf 00 00 00 00       	mov    $0x0,%edi
  400f2c:	e8 7f fe ff ff       	callq  400db0 <exit@plt>
  400f31:	48 8d 3d b6 1e 00 00 	lea    0x1eb6(%rip),%rdi        # 402dee <_IO_stdin_used+0x1ae>
  400f38:	b8 00 00 00 00       	mov    $0x0,%eax
  400f3d:	e8 1e fd ff ff       	callq  400c60 <printf@plt>
  400f42:	48 8d 3d 87 1d 00 00 	lea    0x1d87(%rip),%rdi        # 402cd0 <_IO_stdin_used+0x90>
  400f49:	e8 e2 fc ff ff       	callq  400c30 <puts@plt>
  400f4e:	48 8d 3d a3 1d 00 00 	lea    0x1da3(%rip),%rdi        # 402cf8 <_IO_stdin_used+0xb8>
  400f55:	e8 d6 fc ff ff       	callq  400c30 <puts@plt>
  400f5a:	48 8d 3d ab 1e 00 00 	lea    0x1eab(%rip),%rdi        # 402e0c <_IO_stdin_used+0x1cc>
  400f61:	e8 ca fc ff ff       	callq  400c30 <puts@plt>
  400f66:	eb bf                	jmp    400f27 <usage+0x51>

0000000000400f68 <initialize_target>:
  400f68:	55                   	push   %rbp
  400f69:	53                   	push   %rbx
  400f6a:	48 81 ec 08 21 00 00 	sub    $0x2108,%rsp
  400f71:	89 f5                	mov    %esi,%ebp
  400f73:	89 3d 7f 35 20 00    	mov    %edi,0x20357f(%rip)        # 6044f8 <check_level>
  400f79:	8b 3d b1 31 20 00    	mov    0x2031b1(%rip),%edi        # 604130 <target_id>
  400f7f:	e8 0f 1c 00 00       	callq  402b93 <gencookie>
  400f84:	89 05 7a 35 20 00    	mov    %eax,0x20357a(%rip)        # 604504 <cookie>
  400f8a:	89 c7                	mov    %eax,%edi
  400f8c:	e8 02 1c 00 00       	callq  402b93 <gencookie>
  400f91:	89 05 69 35 20 00    	mov    %eax,0x203569(%rip)        # 604500 <authkey>
  400f97:	8b 05 93 31 20 00    	mov    0x203193(%rip),%eax        # 604130 <target_id>
  400f9d:	8d 78 01             	lea    0x1(%rax),%edi
  400fa0:	e8 5b fc ff ff       	callq  400c00 <srandom@plt>
  400fa5:	e8 66 fd ff ff       	callq  400d10 <random@plt>
  400faa:	89 c7                	mov    %eax,%edi
  400fac:	e8 c3 02 00 00       	callq  401274 <scramble>
  400fb1:	89 c3                	mov    %eax,%ebx
  400fb3:	85 ed                	test   %ebp,%ebp
  400fb5:	75 3d                	jne    400ff4 <initialize_target+0x8c>
  400fb7:	b8 00 00 00 00       	mov    $0x0,%eax
  400fbc:	01 d8                	add    %ebx,%eax
  400fbe:	0f b7 c0             	movzwl %ax,%eax
  400fc1:	8d 04 c5 00 01 00 00 	lea    0x100(,%rax,8),%eax
  400fc8:	89 c0                	mov    %eax,%eax
  400fca:	48 89 05 af 34 20 00 	mov    %rax,0x2034af(%rip)        # 604480 <buf_offset>
  400fd1:	c6 05 50 41 20 00 63 	movb   $0x63,0x204150(%rip)        # 605128 <target_prefix>
  400fd8:	83 3d a9 34 20 00 00 	cmpl   $0x0,0x2034a9(%rip)        # 604488 <notify>
  400fdf:	74 09                	je     400fea <initialize_target+0x82>
  400fe1:	83 3d 20 35 20 00 00 	cmpl   $0x0,0x203520(%rip)        # 604508 <is_checker>
  400fe8:	74 22                	je     40100c <initialize_target+0xa4>
  400fea:	48 81 c4 08 21 00 00 	add    $0x2108,%rsp
  400ff1:	5b                   	pop    %rbx
  400ff2:	5d                   	pop    %rbp
  400ff3:	c3                   	retq   
  400ff4:	bf 00 00 00 00       	mov    $0x0,%edi
  400ff9:	e8 02 fd ff ff       	callq  400d00 <time@plt>
  400ffe:	89 c7                	mov    %eax,%edi
  401000:	e8 fb fb ff ff       	callq  400c00 <srandom@plt>
  401005:	e8 06 fd ff ff       	callq  400d10 <random@plt>
  40100a:	eb b0                	jmp    400fbc <initialize_target+0x54>
  40100c:	48 89 e7             	mov    %rsp,%rdi
  40100f:	be 00 01 00 00       	mov    $0x100,%esi
  401014:	e8 77 fd ff ff       	callq  400d90 <gethostname@plt>
  401019:	89 c3                	mov    %eax,%ebx
  40101b:	85 c0                	test   %eax,%eax
  40101d:	75 24                	jne    401043 <initialize_target+0xdb>
  40101f:	48 63 c3             	movslq %ebx,%rax
  401022:	48 8d 15 37 31 20 00 	lea    0x203137(%rip),%rdx        # 604160 <host_table>
  401029:	48 8b 3c c2          	mov    (%rdx,%rax,8),%rdi
  40102d:	48 85 ff             	test   %rdi,%rdi
  401030:	74 27                	je     401059 <initialize_target+0xf1>
  401032:	48 89 e6             	mov    %rsp,%rsi
  401035:	e8 a6 fb ff ff       	callq  400be0 <strcasecmp@plt>
  40103a:	85 c0                	test   %eax,%eax
  40103c:	74 1b                	je     401059 <initialize_target+0xf1>
  40103e:	83 c3 01             	add    $0x1,%ebx
  401041:	eb dc                	jmp    40101f <initialize_target+0xb7>
  401043:	48 8d 3d de 1c 00 00 	lea    0x1cde(%rip),%rdi        # 402d28 <_IO_stdin_used+0xe8>
  40104a:	e8 e1 fb ff ff       	callq  400c30 <puts@plt>
  40104f:	bf 08 00 00 00       	mov    $0x8,%edi
  401054:	e8 57 fd ff ff       	callq  400db0 <exit@plt>
  401059:	48 8d bc 24 00 01 00 	lea    0x100(%rsp),%rdi
  401060:	00 
  401061:	e8 b2 18 00 00       	callq  402918 <init_driver>
  401066:	85 c0                	test   %eax,%eax
  401068:	79 80                	jns    400fea <initialize_target+0x82>
  40106a:	48 8d b4 24 00 01 00 	lea    0x100(%rsp),%rsi
  401071:	00 
  401072:	48 8d 3d e7 1c 00 00 	lea    0x1ce7(%rip),%rdi        # 402d60 <_IO_stdin_used+0x120>
  401079:	b8 00 00 00 00       	mov    $0x0,%eax
  40107e:	e8 dd fb ff ff       	callq  400c60 <printf@plt>
  401083:	bf 08 00 00 00       	mov    $0x8,%edi
  401088:	e8 23 fd ff ff       	callq  400db0 <exit@plt>

000000000040108d <main>:
  40108d:	41 56                	push   %r14
  40108f:	41 55                	push   %r13
  401091:	41 54                	push   %r12
  401093:	55                   	push   %rbp
  401094:	53                   	push   %rbx
  401095:	41 89 fc             	mov    %edi,%r12d
  401098:	48 89 f3             	mov    %rsi,%rbx
  40109b:	48 c7 c6 be 1c 40 00 	mov    $0x401cbe,%rsi
  4010a2:	bf 0b 00 00 00       	mov    $0xb,%edi
  4010a7:	e8 04 fc ff ff       	callq  400cb0 <signal@plt>
  4010ac:	48 c7 c6 6a 1c 40 00 	mov    $0x401c6a,%rsi
  4010b3:	bf 07 00 00 00       	mov    $0x7,%edi
  4010b8:	e8 f3 fb ff ff       	callq  400cb0 <signal@plt>
  4010bd:	48 c7 c6 12 1d 40 00 	mov    $0x401d12,%rsi
  4010c4:	bf 04 00 00 00       	mov    $0x4,%edi
  4010c9:	e8 e2 fb ff ff       	callq  400cb0 <signal@plt>
  4010ce:	83 3d 33 34 20 00 00 	cmpl   $0x0,0x203433(%rip)        # 604508 <is_checker>
  4010d5:	75 58                	jne    40112f <main+0xa2>
  4010d7:	48 8d 2d 47 1d 00 00 	lea    0x1d47(%rip),%rbp        # 402e25 <_IO_stdin_used+0x1e5>
  4010de:	48 8b 05 bb 33 20 00 	mov    0x2033bb(%rip),%rax        # 6044a0 <stdin@@GLIBC_2.2.5>
  4010e5:	48 89 05 04 34 20 00 	mov    %rax,0x203404(%rip)        # 6044f0 <infile>
  4010ec:	41 bd 00 00 00 00    	mov    $0x0,%r13d
  4010f2:	41 be 00 00 00 00    	mov    $0x0,%r14d
  4010f8:	48 89 ea             	mov    %rbp,%rdx
  4010fb:	48 89 de             	mov    %rbx,%rsi
  4010fe:	44 89 e7             	mov    %r12d,%edi
  401101:	e8 6a fc ff ff       	callq  400d70 <getopt@plt>
  401106:	3c ff                	cmp    $0xff,%al
  401108:	0f 84 f8 00 00 00    	je     401206 <main+0x179>
  40110e:	0f be f0             	movsbl %al,%esi
  401111:	83 e8 61             	sub    $0x61,%eax
  401114:	3c 10                	cmp    $0x10,%al
  401116:	0f 87 d1 00 00 00    	ja     4011ed <main+0x160>
  40111c:	0f b6 c0             	movzbl %al,%eax
  40111f:	48 8d 15 4a 1d 00 00 	lea    0x1d4a(%rip),%rdx        # 402e70 <_IO_stdin_used+0x230>
  401126:	48 63 04 82          	movslq (%rdx,%rax,4),%rax
  40112a:	48 01 d0             	add    %rdx,%rax
  40112d:	ff e0                	jmpq   *%rax
  40112f:	48 c7 c6 66 1d 40 00 	mov    $0x401d66,%rsi
  401136:	bf 0e 00 00 00       	mov    $0xe,%edi
  40113b:	e8 70 fb ff ff       	callq  400cb0 <signal@plt>
  401140:	bf 05 00 00 00       	mov    $0x5,%edi
  401145:	e8 36 fb ff ff       	callq  400c80 <alarm@plt>
  40114a:	48 8d 2d d9 1c 00 00 	lea    0x1cd9(%rip),%rbp        # 402e2a <_IO_stdin_used+0x1ea>
  401151:	eb 8b                	jmp    4010de <main+0x51>
  401153:	48 8b 3b             	mov    (%rbx),%rdi
  401156:	e8 7b fd ff ff       	callq  400ed6 <usage>
  40115b:	48 8d 35 2b 1f 00 00 	lea    0x1f2b(%rip),%rsi        # 40308d <_IO_stdin_used+0x44d>
  401162:	48 8b 3d 3f 33 20 00 	mov    0x20333f(%rip),%rdi        # 6044a8 <optarg@@GLIBC_2.2.5>
  401169:	e8 f2 fb ff ff       	callq  400d60 <fopen@plt>
  40116e:	48 89 05 7b 33 20 00 	mov    %rax,0x20337b(%rip)        # 6044f0 <infile>
  401175:	48 85 c0             	test   %rax,%rax
  401178:	0f 85 7a ff ff ff    	jne    4010f8 <main+0x6b>
  40117e:	48 8b 15 23 33 20 00 	mov    0x203323(%rip),%rdx        # 6044a8 <optarg@@GLIBC_2.2.5>
  401185:	48 8d 35 a6 1c 00 00 	lea    0x1ca6(%rip),%rsi        # 402e32 <_IO_stdin_used+0x1f2>
  40118c:	48 8b 3d 2d 33 20 00 	mov    0x20332d(%rip),%rdi        # 6044c0 <stderr@@GLIBC_2.2.5>
  401193:	e8 38 fb ff ff       	callq  400cd0 <fprintf@plt>
  401198:	b8 01 00 00 00       	mov    $0x1,%eax
  40119d:	e9 c9 00 00 00       	jmpq   40126b <main+0x1de>
  4011a2:	ba 10 00 00 00       	mov    $0x10,%edx
  4011a7:	be 00 00 00 00       	mov    $0x0,%esi
  4011ac:	48 8b 3d f5 32 20 00 	mov    0x2032f5(%rip),%rdi        # 6044a8 <optarg@@GLIBC_2.2.5>
  4011b3:	e8 c8 fb ff ff       	callq  400d80 <strtoul@plt>
  4011b8:	41 89 c6             	mov    %eax,%r14d
  4011bb:	e9 38 ff ff ff       	jmpq   4010f8 <main+0x6b>
  4011c0:	ba 0a 00 00 00       	mov    $0xa,%edx
  4011c5:	be 00 00 00 00       	mov    $0x0,%esi
  4011ca:	48 8b 3d d7 32 20 00 	mov    0x2032d7(%rip),%rdi        # 6044a8 <optarg@@GLIBC_2.2.5>
  4011d1:	e8 0a fb ff ff       	callq  400ce0 <strtol@plt>
  4011d6:	41 89 c5             	mov    %eax,%r13d
  4011d9:	e9 1a ff ff ff       	jmpq   4010f8 <main+0x6b>
  4011de:	c7 05 a0 32 20 00 00 	movl   $0x0,0x2032a0(%rip)        # 604488 <notify>
  4011e5:	00 00 00 
  4011e8:	e9 0b ff ff ff       	jmpq   4010f8 <main+0x6b>
  4011ed:	48 8d 3d 5b 1c 00 00 	lea    0x1c5b(%rip),%rdi        # 402e4f <_IO_stdin_used+0x20f>
  4011f4:	b8 00 00 00 00       	mov    $0x0,%eax
  4011f9:	e8 62 fa ff ff       	callq  400c60 <printf@plt>
  4011fe:	48 8b 3b             	mov    (%rbx),%rdi
  401201:	e8 d0 fc ff ff       	callq  400ed6 <usage>
  401206:	be 00 00 00 00       	mov    $0x0,%esi
  40120b:	44 89 ef             	mov    %r13d,%edi
  40120e:	e8 55 fd ff ff       	callq  400f68 <initialize_target>
  401213:	83 3d ee 32 20 00 00 	cmpl   $0x0,0x2032ee(%rip)        # 604508 <is_checker>
  40121a:	74 27                	je     401243 <main+0x1b6>
  40121c:	44 3b 35 dd 32 20 00 	cmp    0x2032dd(%rip),%r14d        # 604500 <authkey>
  401223:	74 1e                	je     401243 <main+0x1b6>
  401225:	44 89 f6             	mov    %r14d,%esi
  401228:	48 8d 3d 59 1b 00 00 	lea    0x1b59(%rip),%rdi        # 402d88 <_IO_stdin_used+0x148>
  40122f:	b8 00 00 00 00       	mov    $0x0,%eax
  401234:	e8 27 fa ff ff       	callq  400c60 <printf@plt>
  401239:	b8 00 00 00 00       	mov    $0x0,%eax
  40123e:	e8 f7 06 00 00       	callq  40193a <check_fail>
  401243:	8b 35 bb 32 20 00    	mov    0x2032bb(%rip),%esi        # 604504 <cookie>
  401249:	48 8d 3d 12 1c 00 00 	lea    0x1c12(%rip),%rdi        # 402e62 <_IO_stdin_used+0x222>
  401250:	b8 00 00 00 00       	mov    $0x0,%eax
  401255:	e8 06 fa ff ff       	callq  400c60 <printf@plt>
  40125a:	48 8b 3d 1f 32 20 00 	mov    0x20321f(%rip),%rdi        # 604480 <buf_offset>
  401261:	e8 db 0b 00 00       	callq  401e41 <stable_launch>
  401266:	b8 00 00 00 00       	mov    $0x0,%eax
  40126b:	5b                   	pop    %rbx
  40126c:	5d                   	pop    %rbp
  40126d:	41 5c                	pop    %r12
  40126f:	41 5d                	pop    %r13
  401271:	41 5e                	pop    %r14
  401273:	c3                   	retq   

0000000000401274 <scramble>:
  401274:	b8 00 00 00 00       	mov    $0x0,%eax
  401279:	eb 11                	jmp    40128c <scramble+0x18>
  40127b:	69 d0 01 8a 00 00    	imul   $0x8a01,%eax,%edx
  401281:	01 fa                	add    %edi,%edx
  401283:	89 c1                	mov    %eax,%ecx
  401285:	89 54 8c d0          	mov    %edx,-0x30(%rsp,%rcx,4)
  401289:	83 c0 01             	add    $0x1,%eax
  40128c:	83 f8 09             	cmp    $0x9,%eax
  40128f:	76 ea                	jbe    40127b <scramble+0x7>
  401291:	8b 44 24 d4          	mov    -0x2c(%rsp),%eax
  401295:	69 c0 ac af 00 00    	imul   $0xafac,%eax,%eax
  40129b:	89 44 24 d4          	mov    %eax,-0x2c(%rsp)
  40129f:	8b 44 24 d4          	mov    -0x2c(%rsp),%eax
  4012a3:	69 c0 b9 b5 00 00    	imul   $0xb5b9,%eax,%eax
  4012a9:	89 44 24 d4          	mov    %eax,-0x2c(%rsp)
  4012ad:	8b 44 24 ec          	mov    -0x14(%rsp),%eax
  4012b1:	69 c0 06 7e 00 00    	imul   $0x7e06,%eax,%eax
  4012b7:	89 44 24 ec          	mov    %eax,-0x14(%rsp)
  4012bb:	8b 44 24 e4          	mov    -0x1c(%rsp),%eax
  4012bf:	69 c0 53 4d 00 00    	imul   $0x4d53,%eax,%eax
  4012c5:	89 44 24 e4          	mov    %eax,-0x1c(%rsp)
  4012c9:	8b 44 24 e8          	mov    -0x18(%rsp),%eax
  4012cd:	69 c0 86 ec 00 00    	imul   $0xec86,%eax,%eax
  4012d3:	89 44 24 e8          	mov    %eax,-0x18(%rsp)
  4012d7:	8b 44 24 e4          	mov    -0x1c(%rsp),%eax
  4012db:	69 c0 a8 e2 00 00    	imul   $0xe2a8,%eax,%eax
  4012e1:	89 44 24 e4          	mov    %eax,-0x1c(%rsp)
  4012e5:	8b 44 24 f4          	mov    -0xc(%rsp),%eax
  4012e9:	69 c0 67 f2 00 00    	imul   $0xf267,%eax,%eax
  4012ef:	89 44 24 f4          	mov    %eax,-0xc(%rsp)
  4012f3:	8b 44 24 e8          	mov    -0x18(%rsp),%eax
  4012f7:	69 c0 bc e9 00 00    	imul   $0xe9bc,%eax,%eax
  4012fd:	89 44 24 e8          	mov    %eax,-0x18(%rsp)
  401301:	8b 44 24 e4          	mov    -0x1c(%rsp),%eax
  401305:	69 c0 24 41 00 00    	imul   $0x4124,%eax,%eax
  40130b:	89 44 24 e4          	mov    %eax,-0x1c(%rsp)
  40130f:	8b 44 24 d8          	mov    -0x28(%rsp),%eax
  401313:	69 c0 08 52 00 00    	imul   $0x5208,%eax,%eax
  401319:	89 44 24 d8          	mov    %eax,-0x28(%rsp)
  40131d:	8b 44 24 d4          	mov    -0x2c(%rsp),%eax
  401321:	69 c0 7f 14 00 00    	imul   $0x147f,%eax,%eax
  401327:	89 44 24 d4          	mov    %eax,-0x2c(%rsp)
  40132b:	8b 44 24 e4          	mov    -0x1c(%rsp),%eax
  40132f:	69 c0 bd 0b 00 00    	imul   $0xbbd,%eax,%eax
  401335:	89 44 24 e4          	mov    %eax,-0x1c(%rsp)
  401339:	8b 44 24 f0          	mov    -0x10(%rsp),%eax
  40133d:	69 c0 1a 5a 00 00    	imul   $0x5a1a,%eax,%eax
  401343:	89 44 24 f0          	mov    %eax,-0x10(%rsp)
  401347:	8b 44 24 e8          	mov    -0x18(%rsp),%eax
  40134b:	69 c0 42 36 00 00    	imul   $0x3642,%eax,%eax
  401351:	89 44 24 e8          	mov    %eax,-0x18(%rsp)
  401355:	8b 44 24 f0          	mov    -0x10(%rsp),%eax
  401359:	69 c0 8c 9a 00 00    	imul   $0x9a8c,%eax,%eax
  40135f:	89 44 24 f0          	mov    %eax,-0x10(%rsp)
  401363:	8b 44 24 e0          	mov    -0x20(%rsp),%eax
  401367:	69 c0 51 a2 00 00    	imul   $0xa251,%eax,%eax
  40136d:	89 44 24 e0          	mov    %eax,-0x20(%rsp)
  401371:	8b 44 24 e0          	mov    -0x20(%rsp),%eax
  401375:	69 c0 de 27 00 00    	imul   $0x27de,%eax,%eax
  40137b:	89 44 24 e0          	mov    %eax,-0x20(%rsp)
  40137f:	8b 44 24 d0          	mov    -0x30(%rsp),%eax
  401383:	69 c0 a8 76 00 00    	imul   $0x76a8,%eax,%eax
  401389:	89 44 24 d0          	mov    %eax,-0x30(%rsp)
  40138d:	8b 44 24 f4          	mov    -0xc(%rsp),%eax
  401391:	69 c0 73 32 00 00    	imul   $0x3273,%eax,%eax
  401397:	89 44 24 f4          	mov    %eax,-0xc(%rsp)
  40139b:	8b 44 24 e0          	mov    -0x20(%rsp),%eax
  40139f:	69 c0 71 f5 00 00    	imul   $0xf571,%eax,%eax
  4013a5:	89 44 24 e0          	mov    %eax,-0x20(%rsp)
  4013a9:	8b 44 24 e8          	mov    -0x18(%rsp),%eax
  4013ad:	69 c0 7b 5b 00 00    	imul   $0x5b7b,%eax,%eax
  4013b3:	89 44 24 e8          	mov    %eax,-0x18(%rsp)
  4013b7:	8b 44 24 ec          	mov    -0x14(%rsp),%eax
  4013bb:	69 c0 15 d9 00 00    	imul   $0xd915,%eax,%eax
  4013c1:	89 44 24 ec          	mov    %eax,-0x14(%rsp)
  4013c5:	8b 44 24 e4          	mov    -0x1c(%rsp),%eax
  4013c9:	69 c0 c1 42 00 00    	imul   $0x42c1,%eax,%eax
  4013cf:	89 44 24 e4          	mov    %eax,-0x1c(%rsp)
  4013d3:	8b 44 24 f4          	mov    -0xc(%rsp),%eax
  4013d7:	69 c0 6f 2b 00 00    	imul   $0x2b6f,%eax,%eax
  4013dd:	89 44 24 f4          	mov    %eax,-0xc(%rsp)
  4013e1:	8b 44 24 ec          	mov    -0x14(%rsp),%eax
  4013e5:	69 c0 c6 40 00 00    	imul   $0x40c6,%eax,%eax
  4013eb:	89 44 24 ec          	mov    %eax,-0x14(%rsp)
  4013ef:	8b 44 24 ec          	mov    -0x14(%rsp),%eax
  4013f3:	69 c0 d9 56 00 00    	imul   $0x56d9,%eax,%eax
  4013f9:	89 44 24 ec          	mov    %eax,-0x14(%rsp)
  4013fd:	8b 44 24 e0          	mov    -0x20(%rsp),%eax
  401401:	69 c0 a4 4c 00 00    	imul   $0x4ca4,%eax,%eax
  401407:	89 44 24 e0          	mov    %eax,-0x20(%rsp)
  40140b:	8b 44 24 dc          	mov    -0x24(%rsp),%eax
  40140f:	69 c0 28 16 00 00    	imul   $0x1628,%eax,%eax
  401415:	89 44 24 dc          	mov    %eax,-0x24(%rsp)
  401419:	8b 44 24 d8          	mov    -0x28(%rsp),%eax
  40141d:	69 c0 c0 88 00 00    	imul   $0x88c0,%eax,%eax
  401423:	89 44 24 d8          	mov    %eax,-0x28(%rsp)
  401427:	8b 44 24 e0          	mov    -0x20(%rsp),%eax
  40142b:	69 c0 0f bf 00 00    	imul   $0xbf0f,%eax,%eax
  401431:	89 44 24 e0          	mov    %eax,-0x20(%rsp)
  401435:	8b 44 24 e8          	mov    -0x18(%rsp),%eax
  401439:	69 c0 65 52 00 00    	imul   $0x5265,%eax,%eax
  40143f:	89 44 24 e8          	mov    %eax,-0x18(%rsp)
  401443:	8b 44 24 ec          	mov    -0x14(%rsp),%eax
  401447:	69 c0 85 6d 00 00    	imul   $0x6d85,%eax,%eax
  40144d:	89 44 24 ec          	mov    %eax,-0x14(%rsp)
  401451:	8b 44 24 ec          	mov    -0x14(%rsp),%eax
  401455:	69 c0 6a b9 00 00    	imul   $0xb96a,%eax,%eax
  40145b:	89 44 24 ec          	mov    %eax,-0x14(%rsp)
  40145f:	8b 44 24 e0          	mov    -0x20(%rsp),%eax
  401463:	69 c0 27 20 00 00    	imul   $0x2027,%eax,%eax
  401469:	89 44 24 e0          	mov    %eax,-0x20(%rsp)
  40146d:	8b 44 24 dc          	mov    -0x24(%rsp),%eax
  401471:	69 c0 28 a8 00 00    	imul   $0xa828,%eax,%eax
  401477:	89 44 24 dc          	mov    %eax,-0x24(%rsp)
  40147b:	8b 44 24 d8          	mov    -0x28(%rsp),%eax
  40147f:	69 c0 d8 0a 00 00    	imul   $0xad8,%eax,%eax
  401485:	89 44 24 d8          	mov    %eax,-0x28(%rsp)
  401489:	8b 44 24 f4          	mov    -0xc(%rsp),%eax
  40148d:	69 c0 b3 ed 00 00    	imul   $0xedb3,%eax,%eax
  401493:	89 44 24 f4          	mov    %eax,-0xc(%rsp)
  401497:	8b 44 24 f0          	mov    -0x10(%rsp),%eax
  40149b:	69 c0 87 51 00 00    	imul   $0x5187,%eax,%eax
  4014a1:	89 44 24 f0          	mov    %eax,-0x10(%rsp)
  4014a5:	8b 44 24 e0          	mov    -0x20(%rsp),%eax
  4014a9:	69 c0 be a6 00 00    	imul   $0xa6be,%eax,%eax
  4014af:	89 44 24 e0          	mov    %eax,-0x20(%rsp)
  4014b3:	8b 44 24 f4          	mov    -0xc(%rsp),%eax
  4014b7:	69 c0 59 b4 00 00    	imul   $0xb459,%eax,%eax
  4014bd:	89 44 24 f4          	mov    %eax,-0xc(%rsp)
  4014c1:	8b 44 24 e0          	mov    -0x20(%rsp),%eax
  4014c5:	69 c0 6e fa 00 00    	imul   $0xfa6e,%eax,%eax
  4014cb:	89 44 24 e0          	mov    %eax,-0x20(%rsp)
  4014cf:	8b 44 24 e0          	mov    -0x20(%rsp),%eax
  4014d3:	69 c0 ca 3c 00 00    	imul   $0x3cca,%eax,%eax
  4014d9:	89 44 24 e0          	mov    %eax,-0x20(%rsp)
  4014dd:	8b 44 24 dc          	mov    -0x24(%rsp),%eax
  4014e1:	69 c0 c9 6d 00 00    	imul   $0x6dc9,%eax,%eax
  4014e7:	89 44 24 dc          	mov    %eax,-0x24(%rsp)
  4014eb:	8b 44 24 e4          	mov    -0x1c(%rsp),%eax
  4014ef:	69 c0 d1 ed 00 00    	imul   $0xedd1,%eax,%eax
  4014f5:	89 44 24 e4          	mov    %eax,-0x1c(%rsp)
  4014f9:	8b 44 24 d0          	mov    -0x30(%rsp),%eax
  4014fd:	69 c0 5d 9f 00 00    	imul   $0x9f5d,%eax,%eax
  401503:	89 44 24 d0          	mov    %eax,-0x30(%rsp)
  401507:	8b 44 24 d0          	mov    -0x30(%rsp),%eax
  40150b:	69 c0 d6 19 00 00    	imul   $0x19d6,%eax,%eax
  401511:	89 44 24 d0          	mov    %eax,-0x30(%rsp)
  401515:	8b 44 24 f4          	mov    -0xc(%rsp),%eax
  401519:	69 c0 40 0e 00 00    	imul   $0xe40,%eax,%eax
  40151f:	89 44 24 f4          	mov    %eax,-0xc(%rsp)
  401523:	8b 44 24 f4          	mov    -0xc(%rsp),%eax
  401527:	69 c0 05 6c 00 00    	imul   $0x6c05,%eax,%eax
  40152d:	89 44 24 f4          	mov    %eax,-0xc(%rsp)
  401531:	8b 44 24 ec          	mov    -0x14(%rsp),%eax
  401535:	69 c0 88 6b 00 00    	imul   $0x6b88,%eax,%eax
  40153b:	89 44 24 ec          	mov    %eax,-0x14(%rsp)
  40153f:	8b 44 24 e0          	mov    -0x20(%rsp),%eax
  401543:	69 c0 89 b3 00 00    	imul   $0xb389,%eax,%eax
  401549:	89 44 24 e0          	mov    %eax,-0x20(%rsp)
  40154d:	8b 44 24 dc          	mov    -0x24(%rsp),%eax
  401551:	69 c0 c6 a1 00 00    	imul   $0xa1c6,%eax,%eax
  401557:	89 44 24 dc          	mov    %eax,-0x24(%rsp)
  40155b:	8b 44 24 dc          	mov    -0x24(%rsp),%eax
  40155f:	69 c0 54 17 00 00    	imul   $0x1754,%eax,%eax
  401565:	89 44 24 dc          	mov    %eax,-0x24(%rsp)
  401569:	8b 44 24 f4          	mov    -0xc(%rsp),%eax
  40156d:	69 c0 4e a2 00 00    	imul   $0xa24e,%eax,%eax
  401573:	89 44 24 f4          	mov    %eax,-0xc(%rsp)
  401577:	8b 44 24 d0          	mov    -0x30(%rsp),%eax
  40157b:	69 c0 ed bf 00 00    	imul   $0xbfed,%eax,%eax
  401581:	89 44 24 d0          	mov    %eax,-0x30(%rsp)
  401585:	8b 44 24 d8          	mov    -0x28(%rsp),%eax
  401589:	69 c0 d2 e5 00 00    	imul   $0xe5d2,%eax,%eax
  40158f:	89 44 24 d8          	mov    %eax,-0x28(%rsp)
  401593:	8b 44 24 d0          	mov    -0x30(%rsp),%eax
  401597:	69 c0 91 30 00 00    	imul   $0x3091,%eax,%eax
  40159d:	89 44 24 d0          	mov    %eax,-0x30(%rsp)
  4015a1:	8b 44 24 d0          	mov    -0x30(%rsp),%eax
  4015a5:	69 c0 78 7f 00 00    	imul   $0x7f78,%eax,%eax
  4015ab:	89 44 24 d0          	mov    %eax,-0x30(%rsp)
  4015af:	8b 44 24 f4          	mov    -0xc(%rsp),%eax
  4015b3:	69 c0 52 27 00 00    	imul   $0x2752,%eax,%eax
  4015b9:	89 44 24 f4          	mov    %eax,-0xc(%rsp)
  4015bd:	8b 44 24 e0          	mov    -0x20(%rsp),%eax
  4015c1:	69 c0 4f c0 00 00    	imul   $0xc04f,%eax,%eax
  4015c7:	89 44 24 e0          	mov    %eax,-0x20(%rsp)
  4015cb:	8b 44 24 d8          	mov    -0x28(%rsp),%eax
  4015cf:	69 c0 cb e3 00 00    	imul   $0xe3cb,%eax,%eax
  4015d5:	89 44 24 d8          	mov    %eax,-0x28(%rsp)
  4015d9:	8b 44 24 e4          	mov    -0x1c(%rsp),%eax
  4015dd:	69 c0 04 c2 00 00    	imul   $0xc204,%eax,%eax
  4015e3:	89 44 24 e4          	mov    %eax,-0x1c(%rsp)
  4015e7:	8b 44 24 dc          	mov    -0x24(%rsp),%eax
  4015eb:	69 c0 6f 51 00 00    	imul   $0x516f,%eax,%eax
  4015f1:	89 44 24 dc          	mov    %eax,-0x24(%rsp)
  4015f5:	8b 44 24 d8          	mov    -0x28(%rsp),%eax
  4015f9:	69 c0 fc 84 00 00    	imul   $0x84fc,%eax,%eax
  4015ff:	89 44 24 d8          	mov    %eax,-0x28(%rsp)
  401603:	8b 44 24 e0          	mov    -0x20(%rsp),%eax
  401607:	69 c0 f0 97 00 00    	imul   $0x97f0,%eax,%eax
  40160d:	89 44 24 e0          	mov    %eax,-0x20(%rsp)
  401611:	8b 44 24 ec          	mov    -0x14(%rsp),%eax
  401615:	69 c0 a1 49 00 00    	imul   $0x49a1,%eax,%eax
  40161b:	89 44 24 ec          	mov    %eax,-0x14(%rsp)
  40161f:	8b 44 24 d4          	mov    -0x2c(%rsp),%eax
  401623:	69 c0 34 04 00 00    	imul   $0x434,%eax,%eax
  401629:	89 44 24 d4          	mov    %eax,-0x2c(%rsp)
  40162d:	8b 44 24 f4          	mov    -0xc(%rsp),%eax
  401631:	69 c0 da 09 00 00    	imul   $0x9da,%eax,%eax
  401637:	89 44 24 f4          	mov    %eax,-0xc(%rsp)
  40163b:	8b 44 24 e0          	mov    -0x20(%rsp),%eax
  40163f:	69 c0 e0 7a 00 00    	imul   $0x7ae0,%eax,%eax
  401645:	89 44 24 e0          	mov    %eax,-0x20(%rsp)
  401649:	8b 44 24 f4          	mov    -0xc(%rsp),%eax
  40164d:	69 c0 64 84 00 00    	imul   $0x8464,%eax,%eax
  401653:	89 44 24 f4          	mov    %eax,-0xc(%rsp)
  401657:	8b 44 24 e0          	mov    -0x20(%rsp),%eax
  40165b:	69 c0 34 f5 00 00    	imul   $0xf534,%eax,%eax
  401661:	89 44 24 e0          	mov    %eax,-0x20(%rsp)
  401665:	8b 44 24 e8          	mov    -0x18(%rsp),%eax
  401669:	69 c0 13 af 00 00    	imul   $0xaf13,%eax,%eax
  40166f:	89 44 24 e8          	mov    %eax,-0x18(%rsp)
  401673:	8b 44 24 e0          	mov    -0x20(%rsp),%eax
  401677:	69 c0 76 4a 00 00    	imul   $0x4a76,%eax,%eax
  40167d:	89 44 24 e0          	mov    %eax,-0x20(%rsp)
  401681:	8b 44 24 d4          	mov    -0x2c(%rsp),%eax
  401685:	69 c0 22 93 00 00    	imul   $0x9322,%eax,%eax
  40168b:	89 44 24 d4          	mov    %eax,-0x2c(%rsp)
  40168f:	8b 44 24 dc          	mov    -0x24(%rsp),%eax
  401693:	69 c0 cd 1b 00 00    	imul   $0x1bcd,%eax,%eax
  401699:	89 44 24 dc          	mov    %eax,-0x24(%rsp)
  40169d:	8b 44 24 d0          	mov    -0x30(%rsp),%eax
  4016a1:	69 c0 ed 86 00 00    	imul   $0x86ed,%eax,%eax
  4016a7:	89 44 24 d0          	mov    %eax,-0x30(%rsp)
  4016ab:	8b 44 24 d4          	mov    -0x2c(%rsp),%eax
  4016af:	69 c0 1d b3 00 00    	imul   $0xb31d,%eax,%eax
  4016b5:	89 44 24 d4          	mov    %eax,-0x2c(%rsp)
  4016b9:	8b 44 24 d8          	mov    -0x28(%rsp),%eax
  4016bd:	69 c0 39 fd 00 00    	imul   $0xfd39,%eax,%eax
  4016c3:	89 44 24 d8          	mov    %eax,-0x28(%rsp)
  4016c7:	8b 44 24 d4          	mov    -0x2c(%rsp),%eax
  4016cb:	69 c0 36 19 00 00    	imul   $0x1936,%eax,%eax
  4016d1:	89 44 24 d4          	mov    %eax,-0x2c(%rsp)
  4016d5:	8b 44 24 d0          	mov    -0x30(%rsp),%eax
  4016d9:	69 c0 01 c2 00 00    	imul   $0xc201,%eax,%eax
  4016df:	89 44 24 d0          	mov    %eax,-0x30(%rsp)
  4016e3:	8b 44 24 f0          	mov    -0x10(%rsp),%eax
  4016e7:	69 c0 b9 72 00 00    	imul   $0x72b9,%eax,%eax
  4016ed:	89 44 24 f0          	mov    %eax,-0x10(%rsp)
  4016f1:	8b 44 24 f0          	mov    -0x10(%rsp),%eax
  4016f5:	69 c0 9f fc 00 00    	imul   $0xfc9f,%eax,%eax
  4016fb:	89 44 24 f0          	mov    %eax,-0x10(%rsp)
  4016ff:	ba 00 00 00 00       	mov    $0x0,%edx
  401704:	b8 00 00 00 00       	mov    $0x0,%eax
  401709:	eb 0b                	jmp    401716 <scramble+0x4a2>
  40170b:	89 d1                	mov    %edx,%ecx
  40170d:	8b 4c 8c d0          	mov    -0x30(%rsp,%rcx,4),%ecx
  401711:	01 c8                	add    %ecx,%eax
  401713:	83 c2 01             	add    $0x1,%edx
  401716:	83 fa 09             	cmp    $0x9,%edx
  401719:	76 f0                	jbe    40170b <scramble+0x497>
  40171b:	f3 c3                	repz retq 

000000000040171d <getbuf>:
  40171d:	48 83 ec 18          	sub    $0x18,%rsp
  401721:	48 89 e7             	mov    %rsp,%rdi
  401724:	e8 44 02 00 00       	callq  40196d <Gets>
  401729:	b8 01 00 00 00       	mov    $0x1,%eax
  40172e:	48 83 c4 18          	add    $0x18,%rsp
  401732:	c3                   	retq   

0000000000401733 <touch1>:
  401733:	48 83 ec 08          	sub    $0x8,%rsp
  401737:	c7 05 bb 2d 20 00 01 	movl   $0x1,0x202dbb(%rip)        # 6044fc <vlevel>
  40173e:	00 00 00 
  401741:	48 8d 3d 9b 17 00 00 	lea    0x179b(%rip),%rdi        # 402ee3 <_IO_stdin_used+0x2a3>
  401748:	e8 e3 f4 ff ff       	callq  400c30 <puts@plt>
  40174d:	bf 01 00 00 00       	mov    $0x1,%edi
  401752:	e8 2d 04 00 00       	callq  401b84 <validate>
  401757:	bf 00 00 00 00       	mov    $0x0,%edi
  40175c:	e8 4f f6 ff ff       	callq  400db0 <exit@plt>

0000000000401761 <touch2>:
  401761:	48 83 ec 08          	sub    $0x8,%rsp
  401765:	89 fe                	mov    %edi,%esi
  401767:	c7 05 8b 2d 20 00 02 	movl   $0x2,0x202d8b(%rip)        # 6044fc <vlevel>
  40176e:	00 00 00 
  401771:	39 3d 8d 2d 20 00    	cmp    %edi,0x202d8d(%rip)        # 604504 <cookie>
  401777:	74 25                	je     40179e <touch2+0x3d>
  401779:	48 8d 3d b0 17 00 00 	lea    0x17b0(%rip),%rdi        # 402f30 <_IO_stdin_used+0x2f0>
  401780:	b8 00 00 00 00       	mov    $0x0,%eax
  401785:	e8 d6 f4 ff ff       	callq  400c60 <printf@plt>
  40178a:	bf 02 00 00 00       	mov    $0x2,%edi
  40178f:	e8 ae 04 00 00       	callq  401c42 <fail>
  401794:	bf 00 00 00 00       	mov    $0x0,%edi
  401799:	e8 12 f6 ff ff       	callq  400db0 <exit@plt>
  40179e:	48 8d 3d 63 17 00 00 	lea    0x1763(%rip),%rdi        # 402f08 <_IO_stdin_used+0x2c8>
  4017a5:	b8 00 00 00 00       	mov    $0x0,%eax
  4017aa:	e8 b1 f4 ff ff       	callq  400c60 <printf@plt>
  4017af:	bf 02 00 00 00       	mov    $0x2,%edi
  4017b4:	e8 cb 03 00 00       	callq  401b84 <validate>
  4017b9:	eb d9                	jmp    401794 <touch2+0x33>

00000000004017bb <hexmatch>:
  4017bb:	41 54                	push   %r12
  4017bd:	55                   	push   %rbp
  4017be:	53                   	push   %rbx
  4017bf:	48 83 ec 70          	sub    $0x70,%rsp
  4017c3:	89 fd                	mov    %edi,%ebp
  4017c5:	48 89 f3             	mov    %rsi,%rbx
  4017c8:	e8 43 f5 ff ff       	callq  400d10 <random@plt>
  4017cd:	48 89 c1             	mov    %rax,%rcx
  4017d0:	48 ba 0b d7 a3 70 3d 	movabs $0xa3d70a3d70a3d70b,%rdx
  4017d7:	0a d7 a3 
  4017da:	48 f7 ea             	imul   %rdx
  4017dd:	48 01 ca             	add    %rcx,%rdx
  4017e0:	48 c1 fa 06          	sar    $0x6,%rdx
  4017e4:	48 89 c8             	mov    %rcx,%rax
  4017e7:	48 c1 f8 3f          	sar    $0x3f,%rax
  4017eb:	48 29 c2             	sub    %rax,%rdx
  4017ee:	48 8d 04 92          	lea    (%rdx,%rdx,4),%rax
  4017f2:	48 8d 14 80          	lea    (%rax,%rax,4),%rdx
  4017f6:	48 8d 04 95 00 00 00 	lea    0x0(,%rdx,4),%rax
  4017fd:	00 
  4017fe:	48 29 c1             	sub    %rax,%rcx
  401801:	4c 8d 24 0c          	lea    (%rsp,%rcx,1),%r12
  401805:	89 ea                	mov    %ebp,%edx
  401807:	48 8d 35 f2 16 00 00 	lea    0x16f2(%rip),%rsi        # 402f00 <_IO_stdin_used+0x2c0>
  40180e:	4c 89 e7             	mov    %r12,%rdi
  401811:	b8 00 00 00 00       	mov    $0x0,%eax
  401816:	e8 85 f5 ff ff       	callq  400da0 <sprintf@plt>
  40181b:	ba 09 00 00 00       	mov    $0x9,%edx
  401820:	4c 89 e6             	mov    %r12,%rsi
  401823:	48 89 df             	mov    %rbx,%rdi
  401826:	e8 e5 f3 ff ff       	callq  400c10 <strncmp@plt>
  40182b:	85 c0                	test   %eax,%eax
  40182d:	0f 94 c0             	sete   %al
  401830:	0f b6 c0             	movzbl %al,%eax
  401833:	48 83 c4 70          	add    $0x70,%rsp
  401837:	5b                   	pop    %rbx
  401838:	5d                   	pop    %rbp
  401839:	41 5c                	pop    %r12
  40183b:	c3                   	retq   

000000000040183c <touch3>:
  40183c:	53                   	push   %rbx
  40183d:	48 89 fb             	mov    %rdi,%rbx
  401840:	c7 05 b2 2c 20 00 03 	movl   $0x3,0x202cb2(%rip)        # 6044fc <vlevel>
  401847:	00 00 00 
  40184a:	48 89 fe             	mov    %rdi,%rsi
  40184d:	8b 3d b1 2c 20 00    	mov    0x202cb1(%rip),%edi        # 604504 <cookie>
  401853:	e8 63 ff ff ff       	callq  4017bb <hexmatch>
  401858:	85 c0                	test   %eax,%eax
  40185a:	74 28                	je     401884 <touch3+0x48>
  40185c:	48 89 de             	mov    %rbx,%rsi
  40185f:	48 8d 3d f2 16 00 00 	lea    0x16f2(%rip),%rdi        # 402f58 <_IO_stdin_used+0x318>
  401866:	b8 00 00 00 00       	mov    $0x0,%eax
  40186b:	e8 f0 f3 ff ff       	callq  400c60 <printf@plt>
  401870:	bf 03 00 00 00       	mov    $0x3,%edi
  401875:	e8 0a 03 00 00       	callq  401b84 <validate>
  40187a:	bf 00 00 00 00       	mov    $0x0,%edi
  40187f:	e8 2c f5 ff ff       	callq  400db0 <exit@plt>
  401884:	48 89 de             	mov    %rbx,%rsi
  401887:	48 8d 3d f2 16 00 00 	lea    0x16f2(%rip),%rdi        # 402f80 <_IO_stdin_used+0x340>
  40188e:	b8 00 00 00 00       	mov    $0x0,%eax
  401893:	e8 c8 f3 ff ff       	callq  400c60 <printf@plt>
  401898:	bf 03 00 00 00       	mov    $0x3,%edi
  40189d:	e8 a0 03 00 00       	callq  401c42 <fail>
  4018a2:	eb d6                	jmp    40187a <touch3+0x3e>

00000000004018a4 <test>:
  4018a4:	48 83 ec 08          	sub    $0x8,%rsp
  4018a8:	b8 00 00 00 00       	mov    $0x0,%eax
  4018ad:	e8 6b fe ff ff       	callq  40171d <getbuf>
  4018b2:	89 c6                	mov    %eax,%esi
  4018b4:	48 8d 3d ed 16 00 00 	lea    0x16ed(%rip),%rdi        # 402fa8 <_IO_stdin_used+0x368>
  4018bb:	b8 00 00 00 00       	mov    $0x0,%eax
  4018c0:	e8 9b f3 ff ff       	callq  400c60 <printf@plt>
  4018c5:	48 83 c4 08          	add    $0x8,%rsp
  4018c9:	c3                   	retq   

00000000004018ca <save_char>:
  4018ca:	8b 05 54 38 20 00    	mov    0x203854(%rip),%eax        # 605124 <gets_cnt>
  4018d0:	3d ff 03 00 00       	cmp    $0x3ff,%eax
  4018d5:	7f 4a                	jg     401921 <save_char+0x57>
  4018d7:	8d 14 40             	lea    (%rax,%rax,2),%edx
  4018da:	89 f9                	mov    %edi,%ecx
  4018dc:	c0 e9 04             	shr    $0x4,%cl
  4018df:	4c 8d 05 ea 19 00 00 	lea    0x19ea(%rip),%r8        # 4032d0 <trans_char>
  4018e6:	83 e1 0f             	and    $0xf,%ecx
  4018e9:	45 0f b6 0c 08       	movzbl (%r8,%rcx,1),%r9d
  4018ee:	48 8d 0d 2b 2c 20 00 	lea    0x202c2b(%rip),%rcx        # 604520 <gets_buf>
  4018f5:	48 63 f2             	movslq %edx,%rsi
  4018f8:	44 88 0c 31          	mov    %r9b,(%rcx,%rsi,1)
  4018fc:	8d 72 01             	lea    0x1(%rdx),%esi
  4018ff:	83 e7 0f             	and    $0xf,%edi
  401902:	41 0f b6 3c 38       	movzbl (%r8,%rdi,1),%edi
  401907:	48 63 f6             	movslq %esi,%rsi
  40190a:	40 88 3c 31          	mov    %dil,(%rcx,%rsi,1)
  40190e:	83 c2 02             	add    $0x2,%edx
  401911:	48 63 d2             	movslq %edx,%rdx
  401914:	c6 04 11 20          	movb   $0x20,(%rcx,%rdx,1)
  401918:	83 c0 01             	add    $0x1,%eax
  40191b:	89 05 03 38 20 00    	mov    %eax,0x203803(%rip)        # 605124 <gets_cnt>
  401921:	f3 c3                	repz retq 

0000000000401923 <save_term>:
  401923:	8b 05 fb 37 20 00    	mov    0x2037fb(%rip),%eax        # 605124 <gets_cnt>
  401929:	8d 04 40             	lea    (%rax,%rax,2),%eax
  40192c:	48 98                	cltq   
  40192e:	48 8d 15 eb 2b 20 00 	lea    0x202beb(%rip),%rdx        # 604520 <gets_buf>
  401935:	c6 04 02 00          	movb   $0x0,(%rdx,%rax,1)
  401939:	c3                   	retq   

000000000040193a <check_fail>:
  40193a:	48 83 ec 08          	sub    $0x8,%rsp
  40193e:	0f be 35 e3 37 20 00 	movsbl 0x2037e3(%rip),%esi        # 605128 <target_prefix>
  401945:	48 8d 0d d4 2b 20 00 	lea    0x202bd4(%rip),%rcx        # 604520 <gets_buf>
  40194c:	8b 15 a6 2b 20 00    	mov    0x202ba6(%rip),%edx        # 6044f8 <check_level>
  401952:	48 8d 3d 72 16 00 00 	lea    0x1672(%rip),%rdi        # 402fcb <_IO_stdin_used+0x38b>
  401959:	b8 00 00 00 00       	mov    $0x0,%eax
  40195e:	e8 fd f2 ff ff       	callq  400c60 <printf@plt>
  401963:	bf 01 00 00 00       	mov    $0x1,%edi
  401968:	e8 43 f4 ff ff       	callq  400db0 <exit@plt>

000000000040196d <Gets>:
  40196d:	41 54                	push   %r12
  40196f:	55                   	push   %rbp
  401970:	53                   	push   %rbx
  401971:	49 89 fc             	mov    %rdi,%r12
  401974:	c7 05 a6 37 20 00 00 	movl   $0x0,0x2037a6(%rip)        # 605124 <gets_cnt>
  40197b:	00 00 00 
  40197e:	48 89 fb             	mov    %rdi,%rbx
  401981:	eb 11                	jmp    401994 <Gets+0x27>
  401983:	48 8d 6b 01          	lea    0x1(%rbx),%rbp
  401987:	88 03                	mov    %al,(%rbx)
  401989:	0f b6 f8             	movzbl %al,%edi
  40198c:	e8 39 ff ff ff       	callq  4018ca <save_char>
  401991:	48 89 eb             	mov    %rbp,%rbx
  401994:	48 8b 3d 55 2b 20 00 	mov    0x202b55(%rip),%rdi        # 6044f0 <infile>
  40199b:	e8 80 f3 ff ff       	callq  400d20 <_IO_getc@plt>
  4019a0:	83 f8 ff             	cmp    $0xffffffff,%eax
  4019a3:	74 05                	je     4019aa <Gets+0x3d>
  4019a5:	83 f8 0a             	cmp    $0xa,%eax
  4019a8:	75 d9                	jne    401983 <Gets+0x16>
  4019aa:	c6 03 00             	movb   $0x0,(%rbx)
  4019ad:	b8 00 00 00 00       	mov    $0x0,%eax
  4019b2:	e8 6c ff ff ff       	callq  401923 <save_term>
  4019b7:	4c 89 e0             	mov    %r12,%rax
  4019ba:	5b                   	pop    %rbx
  4019bb:	5d                   	pop    %rbp
  4019bc:	41 5c                	pop    %r12
  4019be:	c3                   	retq   

00000000004019bf <notify_server>:
  4019bf:	83 3d 42 2b 20 00 00 	cmpl   $0x0,0x202b42(%rip)        # 604508 <is_checker>
  4019c6:	0f 85 de 00 00 00    	jne    401aaa <notify_server+0xeb>
  4019cc:	55                   	push   %rbp
  4019cd:	53                   	push   %rbx
  4019ce:	48 81 ec 08 40 00 00 	sub    $0x4008,%rsp
  4019d5:	89 fb                	mov    %edi,%ebx
  4019d7:	8b 05 47 37 20 00    	mov    0x203747(%rip),%eax        # 605124 <gets_cnt>
  4019dd:	83 c0 64             	add    $0x64,%eax
  4019e0:	3d 00 20 00 00       	cmp    $0x2000,%eax
  4019e5:	0f 8f c1 00 00 00    	jg     401aac <notify_server+0xed>
  4019eb:	44 0f be 0d 35 37 20 	movsbl 0x203735(%rip),%r9d        # 605128 <target_prefix>
  4019f2:	00 
  4019f3:	83 3d 8e 2a 20 00 00 	cmpl   $0x0,0x202a8e(%rip)        # 604488 <notify>
  4019fa:	0f 84 c7 00 00 00    	je     401ac7 <notify_server+0x108>
  401a00:	44 8b 05 f9 2a 20 00 	mov    0x202af9(%rip),%r8d        # 604500 <authkey>
  401a07:	85 db                	test   %ebx,%ebx
  401a09:	0f 84 c3 00 00 00    	je     401ad2 <notify_server+0x113>
  401a0f:	48 8d 2d cb 15 00 00 	lea    0x15cb(%rip),%rbp        # 402fe1 <_IO_stdin_used+0x3a1>
  401a16:	48 8d bc 24 00 20 00 	lea    0x2000(%rsp),%rdi
  401a1d:	00 
  401a1e:	48 8d 05 fb 2a 20 00 	lea    0x202afb(%rip),%rax        # 604520 <gets_buf>
  401a25:	50                   	push   %rax
  401a26:	56                   	push   %rsi
  401a27:	48 89 e9             	mov    %rbp,%rcx
  401a2a:	8b 15 00 27 20 00    	mov    0x202700(%rip),%edx        # 604130 <target_id>
  401a30:	48 8d 35 b4 15 00 00 	lea    0x15b4(%rip),%rsi        # 402feb <_IO_stdin_used+0x3ab>
  401a37:	b8 00 00 00 00       	mov    $0x0,%eax
  401a3c:	e8 5f f3 ff ff       	callq  400da0 <sprintf@plt>
  401a41:	48 83 c4 10          	add    $0x10,%rsp
  401a45:	83 3d 3c 2a 20 00 00 	cmpl   $0x0,0x202a3c(%rip)        # 604488 <notify>
  401a4c:	0f 84 b8 00 00 00    	je     401b0a <notify_server+0x14b>
  401a52:	85 db                	test   %ebx,%ebx
  401a54:	0f 84 a2 00 00 00    	je     401afc <notify_server+0x13d>
  401a5a:	48 8d 8c 24 00 20 00 	lea    0x2000(%rsp),%rcx
  401a61:	00 
  401a62:	49 89 e1             	mov    %rsp,%r9
  401a65:	41 b8 00 00 00 00    	mov    $0x0,%r8d
  401a6b:	48 8b 15 d6 26 20 00 	mov    0x2026d6(%rip),%rdx        # 604148 <lab>
  401a72:	48 8b 35 d7 26 20 00 	mov    0x2026d7(%rip),%rsi        # 604150 <course>
  401a79:	48 8b 3d c0 26 20 00 	mov    0x2026c0(%rip),%rdi        # 604140 <user_id>
  401a80:	e8 6e 10 00 00       	callq  402af3 <driver_post>
  401a85:	85 c0                	test   %eax,%eax
  401a87:	78 55                	js     401ade <notify_server+0x11f>
  401a89:	48 8d 3d a0 16 00 00 	lea    0x16a0(%rip),%rdi        # 403130 <_IO_stdin_used+0x4f0>
  401a90:	e8 9b f1 ff ff       	callq  400c30 <puts@plt>
  401a95:	48 8d 3d 77 15 00 00 	lea    0x1577(%rip),%rdi        # 403013 <_IO_stdin_used+0x3d3>
  401a9c:	e8 8f f1 ff ff       	callq  400c30 <puts@plt>
  401aa1:	48 81 c4 08 40 00 00 	add    $0x4008,%rsp
  401aa8:	5b                   	pop    %rbx
  401aa9:	5d                   	pop    %rbp
  401aaa:	f3 c3                	repz retq 
  401aac:	48 8d 3d 4d 16 00 00 	lea    0x164d(%rip),%rdi        # 403100 <_IO_stdin_used+0x4c0>
  401ab3:	b8 00 00 00 00       	mov    $0x0,%eax
  401ab8:	e8 a3 f1 ff ff       	callq  400c60 <printf@plt>
  401abd:	bf 01 00 00 00       	mov    $0x1,%edi
  401ac2:	e8 e9 f2 ff ff       	callq  400db0 <exit@plt>
  401ac7:	41 b8 ff ff ff ff    	mov    $0xffffffff,%r8d
  401acd:	e9 35 ff ff ff       	jmpq   401a07 <notify_server+0x48>
  401ad2:	48 8d 2d 0d 15 00 00 	lea    0x150d(%rip),%rbp        # 402fe6 <_IO_stdin_used+0x3a6>
  401ad9:	e9 38 ff ff ff       	jmpq   401a16 <notify_server+0x57>
  401ade:	48 89 e6             	mov    %rsp,%rsi
  401ae1:	48 8d 3d 1f 15 00 00 	lea    0x151f(%rip),%rdi        # 403007 <_IO_stdin_used+0x3c7>
  401ae8:	b8 00 00 00 00       	mov    $0x0,%eax
  401aed:	e8 6e f1 ff ff       	callq  400c60 <printf@plt>
  401af2:	bf 01 00 00 00       	mov    $0x1,%edi
  401af7:	e8 b4 f2 ff ff       	callq  400db0 <exit@plt>
  401afc:	48 8d 3d 1a 15 00 00 	lea    0x151a(%rip),%rdi        # 40301d <_IO_stdin_used+0x3dd>
  401b03:	e8 28 f1 ff ff       	callq  400c30 <puts@plt>
  401b08:	eb 97                	jmp    401aa1 <notify_server+0xe2>
  401b0a:	48 89 ee             	mov    %rbp,%rsi
  401b0d:	48 8d 3d 54 16 00 00 	lea    0x1654(%rip),%rdi        # 403168 <_IO_stdin_used+0x528>
  401b14:	b8 00 00 00 00       	mov    $0x0,%eax
  401b19:	e8 42 f1 ff ff       	callq  400c60 <printf@plt>
  401b1e:	48 8b 35 1b 26 20 00 	mov    0x20261b(%rip),%rsi        # 604140 <user_id>
  401b25:	48 8d 3d f8 14 00 00 	lea    0x14f8(%rip),%rdi        # 403024 <_IO_stdin_used+0x3e4>
  401b2c:	b8 00 00 00 00       	mov    $0x0,%eax
  401b31:	e8 2a f1 ff ff       	callq  400c60 <printf@plt>
  401b36:	48 8b 35 13 26 20 00 	mov    0x202613(%rip),%rsi        # 604150 <course>
  401b3d:	48 8d 3d ed 14 00 00 	lea    0x14ed(%rip),%rdi        # 403031 <_IO_stdin_used+0x3f1>
  401b44:	b8 00 00 00 00       	mov    $0x0,%eax
  401b49:	e8 12 f1 ff ff       	callq  400c60 <printf@plt>
  401b4e:	48 8b 35 f3 25 20 00 	mov    0x2025f3(%rip),%rsi        # 604148 <lab>
  401b55:	48 8d 3d e1 14 00 00 	lea    0x14e1(%rip),%rdi        # 40303d <_IO_stdin_used+0x3fd>
  401b5c:	b8 00 00 00 00       	mov    $0x0,%eax
  401b61:	e8 fa f0 ff ff       	callq  400c60 <printf@plt>
  401b66:	48 8d b4 24 00 20 00 	lea    0x2000(%rsp),%rsi
  401b6d:	00 
  401b6e:	48 8d 3d d1 14 00 00 	lea    0x14d1(%rip),%rdi        # 403046 <_IO_stdin_used+0x406>
  401b75:	b8 00 00 00 00       	mov    $0x0,%eax
  401b7a:	e8 e1 f0 ff ff       	callq  400c60 <printf@plt>
  401b7f:	e9 1d ff ff ff       	jmpq   401aa1 <notify_server+0xe2>

0000000000401b84 <validate>:
  401b84:	53                   	push   %rbx
  401b85:	89 fb                	mov    %edi,%ebx
  401b87:	83 3d 7a 29 20 00 00 	cmpl   $0x0,0x20297a(%rip)        # 604508 <is_checker>
  401b8e:	74 68                	je     401bf8 <validate+0x74>
  401b90:	39 3d 66 29 20 00    	cmp    %edi,0x202966(%rip)        # 6044fc <vlevel>
  401b96:	75 2d                	jne    401bc5 <validate+0x41>
  401b98:	8b 35 5a 29 20 00    	mov    0x20295a(%rip),%esi        # 6044f8 <check_level>
  401b9e:	39 f7                	cmp    %esi,%edi
  401ba0:	75 39                	jne    401bdb <validate+0x57>
  401ba2:	0f be 35 7f 35 20 00 	movsbl 0x20357f(%rip),%esi        # 605128 <target_prefix>
  401ba9:	48 8d 0d 70 29 20 00 	lea    0x202970(%rip),%rcx        # 604520 <gets_buf>
  401bb0:	89 fa                	mov    %edi,%edx
  401bb2:	48 8d 3d b7 14 00 00 	lea    0x14b7(%rip),%rdi        # 403070 <_IO_stdin_used+0x430>
  401bb9:	b8 00 00 00 00       	mov    $0x0,%eax
  401bbe:	e8 9d f0 ff ff       	callq  400c60 <printf@plt>
  401bc3:	5b                   	pop    %rbx
  401bc4:	c3                   	retq   
  401bc5:	48 8d 3d 86 14 00 00 	lea    0x1486(%rip),%rdi        # 403052 <_IO_stdin_used+0x412>
  401bcc:	e8 5f f0 ff ff       	callq  400c30 <puts@plt>
  401bd1:	b8 00 00 00 00       	mov    $0x0,%eax
  401bd6:	e8 5f fd ff ff       	callq  40193a <check_fail>
  401bdb:	89 fa                	mov    %edi,%edx
  401bdd:	48 8d 3d ac 15 00 00 	lea    0x15ac(%rip),%rdi        # 403190 <_IO_stdin_used+0x550>
  401be4:	b8 00 00 00 00       	mov    $0x0,%eax
  401be9:	e8 72 f0 ff ff       	callq  400c60 <printf@plt>
  401bee:	b8 00 00 00 00       	mov    $0x0,%eax
  401bf3:	e8 42 fd ff ff       	callq  40193a <check_fail>
  401bf8:	3b 3d fe 28 20 00    	cmp    0x2028fe(%rip),%edi        # 6044fc <vlevel>
  401bfe:	74 1a                	je     401c1a <validate+0x96>
  401c00:	48 8d 3d 4b 14 00 00 	lea    0x144b(%rip),%rdi        # 403052 <_IO_stdin_used+0x412>
  401c07:	e8 24 f0 ff ff       	callq  400c30 <puts@plt>
  401c0c:	89 de                	mov    %ebx,%esi
  401c0e:	bf 00 00 00 00       	mov    $0x0,%edi
  401c13:	e8 a7 fd ff ff       	callq  4019bf <notify_server>
  401c18:	eb a9                	jmp    401bc3 <validate+0x3f>
  401c1a:	0f be 15 07 35 20 00 	movsbl 0x203507(%rip),%edx        # 605128 <target_prefix>
  401c21:	89 fe                	mov    %edi,%esi
  401c23:	48 8d 3d 8e 15 00 00 	lea    0x158e(%rip),%rdi        # 4031b8 <_IO_stdin_used+0x578>
  401c2a:	b8 00 00 00 00       	mov    $0x0,%eax
  401c2f:	e8 2c f0 ff ff       	callq  400c60 <printf@plt>
  401c34:	89 de                	mov    %ebx,%esi
  401c36:	bf 01 00 00 00       	mov    $0x1,%edi
  401c3b:	e8 7f fd ff ff       	callq  4019bf <notify_server>
  401c40:	eb 81                	jmp    401bc3 <validate+0x3f>

0000000000401c42 <fail>:
  401c42:	48 83 ec 08          	sub    $0x8,%rsp
  401c46:	83 3d bb 28 20 00 00 	cmpl   $0x0,0x2028bb(%rip)        # 604508 <is_checker>
  401c4d:	75 11                	jne    401c60 <fail+0x1e>
  401c4f:	89 fe                	mov    %edi,%esi
  401c51:	bf 00 00 00 00       	mov    $0x0,%edi
  401c56:	e8 64 fd ff ff       	callq  4019bf <notify_server>
  401c5b:	48 83 c4 08          	add    $0x8,%rsp
  401c5f:	c3                   	retq   
  401c60:	b8 00 00 00 00       	mov    $0x0,%eax
  401c65:	e8 d0 fc ff ff       	callq  40193a <check_fail>

0000000000401c6a <bushandler>:
  401c6a:	48 83 ec 08          	sub    $0x8,%rsp
  401c6e:	83 3d 93 28 20 00 00 	cmpl   $0x0,0x202893(%rip)        # 604508 <is_checker>
  401c75:	74 16                	je     401c8d <bushandler+0x23>
  401c77:	48 8d 3d 07 14 00 00 	lea    0x1407(%rip),%rdi        # 403085 <_IO_stdin_used+0x445>
  401c7e:	e8 ad ef ff ff       	callq  400c30 <puts@plt>
  401c83:	b8 00 00 00 00       	mov    $0x0,%eax
  401c88:	e8 ad fc ff ff       	callq  40193a <check_fail>
  401c8d:	48 8d 3d 5c 15 00 00 	lea    0x155c(%rip),%rdi        # 4031f0 <_IO_stdin_used+0x5b0>
  401c94:	e8 97 ef ff ff       	callq  400c30 <puts@plt>
  401c99:	48 8d 3d ef 13 00 00 	lea    0x13ef(%rip),%rdi        # 40308f <_IO_stdin_used+0x44f>
  401ca0:	e8 8b ef ff ff       	callq  400c30 <puts@plt>
  401ca5:	be 00 00 00 00       	mov    $0x0,%esi
  401caa:	bf 00 00 00 00       	mov    $0x0,%edi
  401caf:	e8 0b fd ff ff       	callq  4019bf <notify_server>
  401cb4:	bf 01 00 00 00       	mov    $0x1,%edi
  401cb9:	e8 f2 f0 ff ff       	callq  400db0 <exit@plt>

0000000000401cbe <seghandler>:
  401cbe:	48 83 ec 08          	sub    $0x8,%rsp
  401cc2:	83 3d 3f 28 20 00 00 	cmpl   $0x0,0x20283f(%rip)        # 604508 <is_checker>
  401cc9:	74 16                	je     401ce1 <seghandler+0x23>
  401ccb:	48 8d 3d d3 13 00 00 	lea    0x13d3(%rip),%rdi        # 4030a5 <_IO_stdin_used+0x465>
  401cd2:	e8 59 ef ff ff       	callq  400c30 <puts@plt>
  401cd7:	b8 00 00 00 00       	mov    $0x0,%eax
  401cdc:	e8 59 fc ff ff       	callq  40193a <check_fail>
  401ce1:	48 8d 3d 28 15 00 00 	lea    0x1528(%rip),%rdi        # 403210 <_IO_stdin_used+0x5d0>
  401ce8:	e8 43 ef ff ff       	callq  400c30 <puts@plt>
  401ced:	48 8d 3d 9b 13 00 00 	lea    0x139b(%rip),%rdi        # 40308f <_IO_stdin_used+0x44f>
  401cf4:	e8 37 ef ff ff       	callq  400c30 <puts@plt>
  401cf9:	be 00 00 00 00       	mov    $0x0,%esi
  401cfe:	bf 00 00 00 00       	mov    $0x0,%edi
  401d03:	e8 b7 fc ff ff       	callq  4019bf <notify_server>
  401d08:	bf 01 00 00 00       	mov    $0x1,%edi
  401d0d:	e8 9e f0 ff ff       	callq  400db0 <exit@plt>

0000000000401d12 <illegalhandler>:
  401d12:	48 83 ec 08          	sub    $0x8,%rsp
  401d16:	83 3d eb 27 20 00 00 	cmpl   $0x0,0x2027eb(%rip)        # 604508 <is_checker>
  401d1d:	74 16                	je     401d35 <illegalhandler+0x23>
  401d1f:	48 8d 3d 92 13 00 00 	lea    0x1392(%rip),%rdi        # 4030b8 <_IO_stdin_used+0x478>
  401d26:	e8 05 ef ff ff       	callq  400c30 <puts@plt>
  401d2b:	b8 00 00 00 00       	mov    $0x0,%eax
  401d30:	e8 05 fc ff ff       	callq  40193a <check_fail>
  401d35:	48 8d 3d fc 14 00 00 	lea    0x14fc(%rip),%rdi        # 403238 <_IO_stdin_used+0x5f8>
  401d3c:	e8 ef ee ff ff       	callq  400c30 <puts@plt>
  401d41:	48 8d 3d 47 13 00 00 	lea    0x1347(%rip),%rdi        # 40308f <_IO_stdin_used+0x44f>
  401d48:	e8 e3 ee ff ff       	callq  400c30 <puts@plt>
  401d4d:	be 00 00 00 00       	mov    $0x0,%esi
  401d52:	bf 00 00 00 00       	mov    $0x0,%edi
  401d57:	e8 63 fc ff ff       	callq  4019bf <notify_server>
  401d5c:	bf 01 00 00 00       	mov    $0x1,%edi
  401d61:	e8 4a f0 ff ff       	callq  400db0 <exit@plt>

0000000000401d66 <sigalrmhandler>:
  401d66:	48 83 ec 08          	sub    $0x8,%rsp
  401d6a:	83 3d 97 27 20 00 00 	cmpl   $0x0,0x202797(%rip)        # 604508 <is_checker>
  401d71:	74 16                	je     401d89 <sigalrmhandler+0x23>
  401d73:	48 8d 3d 52 13 00 00 	lea    0x1352(%rip),%rdi        # 4030cc <_IO_stdin_used+0x48c>
  401d7a:	e8 b1 ee ff ff       	callq  400c30 <puts@plt>
  401d7f:	b8 00 00 00 00       	mov    $0x0,%eax
  401d84:	e8 b1 fb ff ff       	callq  40193a <check_fail>
  401d89:	be 05 00 00 00       	mov    $0x5,%esi
  401d8e:	48 8d 3d d3 14 00 00 	lea    0x14d3(%rip),%rdi        # 403268 <_IO_stdin_used+0x628>
  401d95:	b8 00 00 00 00       	mov    $0x0,%eax
  401d9a:	e8 c1 ee ff ff       	callq  400c60 <printf@plt>
  401d9f:	be 00 00 00 00       	mov    $0x0,%esi
  401da4:	bf 00 00 00 00       	mov    $0x0,%edi
  401da9:	e8 11 fc ff ff       	callq  4019bf <notify_server>
  401dae:	bf 01 00 00 00       	mov    $0x1,%edi
  401db3:	e8 f8 ef ff ff       	callq  400db0 <exit@plt>

0000000000401db8 <launch>:
  401db8:	55                   	push   %rbp
  401db9:	48 89 e5             	mov    %rsp,%rbp
  401dbc:	48 89 fa             	mov    %rdi,%rdx
  401dbf:	48 8d 47 1e          	lea    0x1e(%rdi),%rax
  401dc3:	48 83 e0 f0          	and    $0xfffffffffffffff0,%rax
  401dc7:	48 29 c4             	sub    %rax,%rsp
  401dca:	48 8d 7c 24 0f       	lea    0xf(%rsp),%rdi
  401dcf:	48 83 e7 f0          	and    $0xfffffffffffffff0,%rdi
  401dd3:	be f4 00 00 00       	mov    $0xf4,%esi
  401dd8:	e8 93 ee ff ff       	callq  400c70 <memset@plt>
  401ddd:	48 8b 05 bc 26 20 00 	mov    0x2026bc(%rip),%rax        # 6044a0 <stdin@@GLIBC_2.2.5>
  401de4:	48 39 05 05 27 20 00 	cmp    %rax,0x202705(%rip)        # 6044f0 <infile>
  401deb:	74 2b                	je     401e18 <launch+0x60>
  401ded:	c7 05 05 27 20 00 00 	movl   $0x0,0x202705(%rip)        # 6044fc <vlevel>
  401df4:	00 00 00 
  401df7:	b8 00 00 00 00       	mov    $0x0,%eax
  401dfc:	e8 a3 fa ff ff       	callq  4018a4 <test>
  401e01:	83 3d 00 27 20 00 00 	cmpl   $0x0,0x202700(%rip)        # 604508 <is_checker>
  401e08:	75 21                	jne    401e2b <launch+0x73>
  401e0a:	48 8d 3d db 12 00 00 	lea    0x12db(%rip),%rdi        # 4030ec <_IO_stdin_used+0x4ac>
  401e11:	e8 1a ee ff ff       	callq  400c30 <puts@plt>
  401e16:	c9                   	leaveq 
  401e17:	c3                   	retq   
  401e18:	48 8d 3d b5 12 00 00 	lea    0x12b5(%rip),%rdi        # 4030d4 <_IO_stdin_used+0x494>
  401e1f:	b8 00 00 00 00       	mov    $0x0,%eax
  401e24:	e8 37 ee ff ff       	callq  400c60 <printf@plt>
  401e29:	eb c2                	jmp    401ded <launch+0x35>
  401e2b:	48 8d 3d af 12 00 00 	lea    0x12af(%rip),%rdi        # 4030e1 <_IO_stdin_used+0x4a1>
  401e32:	e8 f9 ed ff ff       	callq  400c30 <puts@plt>
  401e37:	b8 00 00 00 00       	mov    $0x0,%eax
  401e3c:	e8 f9 fa ff ff       	callq  40193a <check_fail>

0000000000401e41 <stable_launch>:
  401e41:	53                   	push   %rbx
  401e42:	48 89 3d 9f 26 20 00 	mov    %rdi,0x20269f(%rip)        # 6044e8 <global_offset>
  401e49:	41 b9 00 00 00 00    	mov    $0x0,%r9d
  401e4f:	41 b8 00 00 00 00    	mov    $0x0,%r8d
  401e55:	b9 32 01 00 00       	mov    $0x132,%ecx
  401e5a:	ba 07 00 00 00       	mov    $0x7,%edx
  401e5f:	be 00 00 10 00       	mov    $0x100000,%esi
  401e64:	bf 00 60 58 55       	mov    $0x55586000,%edi
  401e69:	e8 e2 ed ff ff       	callq  400c50 <mmap@plt>
  401e6e:	48 89 c3             	mov    %rax,%rbx
  401e71:	48 3d 00 60 58 55    	cmp    $0x55586000,%rax
  401e77:	75 43                	jne    401ebc <stable_launch+0x7b>
  401e79:	48 8d 90 f8 ff 0f 00 	lea    0xffff8(%rax),%rdx
  401e80:	48 89 15 a9 32 20 00 	mov    %rdx,0x2032a9(%rip)        # 605130 <stack_top>
  401e87:	48 89 e0             	mov    %rsp,%rax
  401e8a:	48 89 d4             	mov    %rdx,%rsp
  401e8d:	48 89 c2             	mov    %rax,%rdx
  401e90:	48 89 15 49 26 20 00 	mov    %rdx,0x202649(%rip)        # 6044e0 <global_save_stack>
  401e97:	48 8b 3d 4a 26 20 00 	mov    0x20264a(%rip),%rdi        # 6044e8 <global_offset>
  401e9e:	e8 15 ff ff ff       	callq  401db8 <launch>
  401ea3:	48 8b 05 36 26 20 00 	mov    0x202636(%rip),%rax        # 6044e0 <global_save_stack>
  401eaa:	48 89 c4             	mov    %rax,%rsp
  401ead:	be 00 00 10 00       	mov    $0x100000,%esi
  401eb2:	48 89 df             	mov    %rbx,%rdi
  401eb5:	e8 86 ee ff ff       	callq  400d40 <munmap@plt>
  401eba:	5b                   	pop    %rbx
  401ebb:	c3                   	retq   
  401ebc:	be 00 00 10 00       	mov    $0x100000,%esi
  401ec1:	48 89 c7             	mov    %rax,%rdi
  401ec4:	e8 77 ee ff ff       	callq  400d40 <munmap@plt>
  401ec9:	ba 00 60 58 55       	mov    $0x55586000,%edx
  401ece:	48 8d 35 cb 13 00 00 	lea    0x13cb(%rip),%rsi        # 4032a0 <_IO_stdin_used+0x660>
  401ed5:	48 8b 3d e4 25 20 00 	mov    0x2025e4(%rip),%rdi        # 6044c0 <stderr@@GLIBC_2.2.5>
  401edc:	b8 00 00 00 00       	mov    $0x0,%eax
  401ee1:	e8 ea ed ff ff       	callq  400cd0 <fprintf@plt>
  401ee6:	bf 01 00 00 00       	mov    $0x1,%edi
  401eeb:	e8 c0 ee ff ff       	callq  400db0 <exit@plt>

0000000000401ef0 <rio_readinitb>:
  401ef0:	89 37                	mov    %esi,(%rdi)
  401ef2:	c7 47 04 00 00 00 00 	movl   $0x0,0x4(%rdi)
  401ef9:	48 8d 47 10          	lea    0x10(%rdi),%rax
  401efd:	48 89 47 08          	mov    %rax,0x8(%rdi)
  401f01:	c3                   	retq   

0000000000401f02 <sigalrm_handler>:
  401f02:	48 83 ec 08          	sub    $0x8,%rsp
  401f06:	ba 00 00 00 00       	mov    $0x0,%edx
  401f0b:	48 8d 35 ce 13 00 00 	lea    0x13ce(%rip),%rsi        # 4032e0 <trans_char+0x10>
  401f12:	48 8b 3d a7 25 20 00 	mov    0x2025a7(%rip),%rdi        # 6044c0 <stderr@@GLIBC_2.2.5>
  401f19:	b8 00 00 00 00       	mov    $0x0,%eax
  401f1e:	e8 ad ed ff ff       	callq  400cd0 <fprintf@plt>
  401f23:	bf 01 00 00 00       	mov    $0x1,%edi
  401f28:	e8 83 ee ff ff       	callq  400db0 <exit@plt>

0000000000401f2d <urlencode>:
  401f2d:	41 54                	push   %r12
  401f2f:	55                   	push   %rbp
  401f30:	53                   	push   %rbx
  401f31:	48 83 ec 10          	sub    $0x10,%rsp
  401f35:	48 89 fb             	mov    %rdi,%rbx
  401f38:	48 89 f5             	mov    %rsi,%rbp
  401f3b:	b8 00 00 00 00       	mov    $0x0,%eax
  401f40:	48 c7 c1 ff ff ff ff 	mov    $0xffffffffffffffff,%rcx
  401f47:	f2 ae                	repnz scas %es:(%rdi),%al
  401f49:	48 f7 d1             	not    %rcx
  401f4c:	8d 41 ff             	lea    -0x1(%rcx),%eax
  401f4f:	eb 0e                	jmp    401f5f <urlencode+0x32>
  401f51:	88 55 00             	mov    %dl,0x0(%rbp)
  401f54:	48 8d 6d 01          	lea    0x1(%rbp),%rbp
  401f58:	48 83 c3 01          	add    $0x1,%rbx
  401f5c:	44 89 e0             	mov    %r12d,%eax
  401f5f:	44 8d 60 ff          	lea    -0x1(%rax),%r12d
  401f63:	85 c0                	test   %eax,%eax
  401f65:	0f 84 95 00 00 00    	je     402000 <urlencode+0xd3>
  401f6b:	0f b6 13             	movzbl (%rbx),%edx
  401f6e:	80 fa 2a             	cmp    $0x2a,%dl
  401f71:	0f 94 c1             	sete   %cl
  401f74:	80 fa 2d             	cmp    $0x2d,%dl
  401f77:	0f 94 c0             	sete   %al
  401f7a:	08 c1                	or     %al,%cl
  401f7c:	75 d3                	jne    401f51 <urlencode+0x24>
  401f7e:	80 fa 2e             	cmp    $0x2e,%dl
  401f81:	74 ce                	je     401f51 <urlencode+0x24>
  401f83:	80 fa 5f             	cmp    $0x5f,%dl
  401f86:	74 c9                	je     401f51 <urlencode+0x24>
  401f88:	8d 42 d0             	lea    -0x30(%rdx),%eax
  401f8b:	3c 09                	cmp    $0x9,%al
  401f8d:	76 c2                	jbe    401f51 <urlencode+0x24>
  401f8f:	8d 42 bf             	lea    -0x41(%rdx),%eax
  401f92:	3c 19                	cmp    $0x19,%al
  401f94:	76 bb                	jbe    401f51 <urlencode+0x24>
  401f96:	8d 42 9f             	lea    -0x61(%rdx),%eax
  401f99:	3c 19                	cmp    $0x19,%al
  401f9b:	76 b4                	jbe    401f51 <urlencode+0x24>
  401f9d:	80 fa 20             	cmp    $0x20,%dl
  401fa0:	74 4c                	je     401fee <urlencode+0xc1>
  401fa2:	8d 42 e0             	lea    -0x20(%rdx),%eax
  401fa5:	3c 5f                	cmp    $0x5f,%al
  401fa7:	0f 96 c1             	setbe  %cl
  401faa:	80 fa 09             	cmp    $0x9,%dl
  401fad:	0f 94 c0             	sete   %al
  401fb0:	08 c1                	or     %al,%cl
  401fb2:	74 47                	je     401ffb <urlencode+0xce>
  401fb4:	0f b6 d2             	movzbl %dl,%edx
  401fb7:	48 8d 7c 24 08       	lea    0x8(%rsp),%rdi
  401fbc:	48 8d 35 b5 13 00 00 	lea    0x13b5(%rip),%rsi        # 403378 <trans_char+0xa8>
  401fc3:	b8 00 00 00 00       	mov    $0x0,%eax
  401fc8:	e8 d3 ed ff ff       	callq  400da0 <sprintf@plt>
  401fcd:	0f b6 44 24 08       	movzbl 0x8(%rsp),%eax
  401fd2:	88 45 00             	mov    %al,0x0(%rbp)
  401fd5:	0f b6 44 24 09       	movzbl 0x9(%rsp),%eax
  401fda:	88 45 01             	mov    %al,0x1(%rbp)
  401fdd:	0f b6 44 24 0a       	movzbl 0xa(%rsp),%eax
  401fe2:	88 45 02             	mov    %al,0x2(%rbp)
  401fe5:	48 8d 6d 03          	lea    0x3(%rbp),%rbp
  401fe9:	e9 6a ff ff ff       	jmpq   401f58 <urlencode+0x2b>
  401fee:	c6 45 00 2b          	movb   $0x2b,0x0(%rbp)
  401ff2:	48 8d 6d 01          	lea    0x1(%rbp),%rbp
  401ff6:	e9 5d ff ff ff       	jmpq   401f58 <urlencode+0x2b>
  401ffb:	b8 ff ff ff ff       	mov    $0xffffffff,%eax
  402000:	48 83 c4 10          	add    $0x10,%rsp
  402004:	5b                   	pop    %rbx
  402005:	5d                   	pop    %rbp
  402006:	41 5c                	pop    %r12
  402008:	c3                   	retq   

0000000000402009 <rio_writen>:
  402009:	41 55                	push   %r13
  40200b:	41 54                	push   %r12
  40200d:	55                   	push   %rbp
  40200e:	53                   	push   %rbx
  40200f:	48 83 ec 08          	sub    $0x8,%rsp
  402013:	41 89 fc             	mov    %edi,%r12d
  402016:	49 89 d5             	mov    %rdx,%r13
  402019:	48 89 f5             	mov    %rsi,%rbp
  40201c:	48 89 d3             	mov    %rdx,%rbx
  40201f:	eb 06                	jmp    402027 <rio_writen+0x1e>
  402021:	48 29 c3             	sub    %rax,%rbx
  402024:	48 01 c5             	add    %rax,%rbp
  402027:	48 85 db             	test   %rbx,%rbx
  40202a:	74 24                	je     402050 <rio_writen+0x47>
  40202c:	48 89 da             	mov    %rbx,%rdx
  40202f:	48 89 ee             	mov    %rbp,%rsi
  402032:	44 89 e7             	mov    %r12d,%edi
  402035:	e8 06 ec ff ff       	callq  400c40 <write@plt>
  40203a:	48 85 c0             	test   %rax,%rax
  40203d:	7f e2                	jg     402021 <rio_writen+0x18>
  40203f:	e8 ac eb ff ff       	callq  400bf0 <__errno_location@plt>
  402044:	83 38 04             	cmpl   $0x4,(%rax)
  402047:	75 15                	jne    40205e <rio_writen+0x55>
  402049:	b8 00 00 00 00       	mov    $0x0,%eax
  40204e:	eb d1                	jmp    402021 <rio_writen+0x18>
  402050:	4c 89 e8             	mov    %r13,%rax
  402053:	48 83 c4 08          	add    $0x8,%rsp
  402057:	5b                   	pop    %rbx
  402058:	5d                   	pop    %rbp
  402059:	41 5c                	pop    %r12
  40205b:	41 5d                	pop    %r13
  40205d:	c3                   	retq   
  40205e:	48 c7 c0 ff ff ff ff 	mov    $0xffffffffffffffff,%rax
  402065:	eb ec                	jmp    402053 <rio_writen+0x4a>

0000000000402067 <rio_read>:
  402067:	41 55                	push   %r13
  402069:	41 54                	push   %r12
  40206b:	55                   	push   %rbp
  40206c:	53                   	push   %rbx
  40206d:	48 83 ec 08          	sub    $0x8,%rsp
  402071:	48 89 fb             	mov    %rdi,%rbx
  402074:	49 89 f5             	mov    %rsi,%r13
  402077:	49 89 d4             	mov    %rdx,%r12
  40207a:	eb 0a                	jmp    402086 <rio_read+0x1f>
  40207c:	e8 6f eb ff ff       	callq  400bf0 <__errno_location@plt>
  402081:	83 38 04             	cmpl   $0x4,(%rax)
  402084:	75 5c                	jne    4020e2 <rio_read+0x7b>
  402086:	8b 6b 04             	mov    0x4(%rbx),%ebp
  402089:	85 ed                	test   %ebp,%ebp
  40208b:	7f 24                	jg     4020b1 <rio_read+0x4a>
  40208d:	48 8d 6b 10          	lea    0x10(%rbx),%rbp
  402091:	ba 00 20 00 00       	mov    $0x2000,%edx
  402096:	48 89 ee             	mov    %rbp,%rsi
  402099:	8b 3b                	mov    (%rbx),%edi
  40209b:	e8 00 ec ff ff       	callq  400ca0 <read@plt>
  4020a0:	89 43 04             	mov    %eax,0x4(%rbx)
  4020a3:	85 c0                	test   %eax,%eax
  4020a5:	78 d5                	js     40207c <rio_read+0x15>
  4020a7:	85 c0                	test   %eax,%eax
  4020a9:	74 40                	je     4020eb <rio_read+0x84>
  4020ab:	48 89 6b 08          	mov    %rbp,0x8(%rbx)
  4020af:	eb d5                	jmp    402086 <rio_read+0x1f>
  4020b1:	89 e8                	mov    %ebp,%eax
  4020b3:	49 39 c4             	cmp    %rax,%r12
  4020b6:	77 03                	ja     4020bb <rio_read+0x54>
  4020b8:	44 89 e5             	mov    %r12d,%ebp
  4020bb:	4c 63 e5             	movslq %ebp,%r12
  4020be:	48 8b 73 08          	mov    0x8(%rbx),%rsi
  4020c2:	4c 89 e2             	mov    %r12,%rdx
  4020c5:	4c 89 ef             	mov    %r13,%rdi
  4020c8:	e8 23 ec ff ff       	callq  400cf0 <memcpy@plt>
  4020cd:	4c 01 63 08          	add    %r12,0x8(%rbx)
  4020d1:	29 6b 04             	sub    %ebp,0x4(%rbx)
  4020d4:	4c 89 e0             	mov    %r12,%rax
  4020d7:	48 83 c4 08          	add    $0x8,%rsp
  4020db:	5b                   	pop    %rbx
  4020dc:	5d                   	pop    %rbp
  4020dd:	41 5c                	pop    %r12
  4020df:	41 5d                	pop    %r13
  4020e1:	c3                   	retq   
  4020e2:	48 c7 c0 ff ff ff ff 	mov    $0xffffffffffffffff,%rax
  4020e9:	eb ec                	jmp    4020d7 <rio_read+0x70>
  4020eb:	b8 00 00 00 00       	mov    $0x0,%eax
  4020f0:	eb e5                	jmp    4020d7 <rio_read+0x70>

00000000004020f2 <rio_readlineb>:
  4020f2:	41 55                	push   %r13
  4020f4:	41 54                	push   %r12
  4020f6:	55                   	push   %rbp
  4020f7:	53                   	push   %rbx
  4020f8:	48 83 ec 18          	sub    $0x18,%rsp
  4020fc:	49 89 fd             	mov    %rdi,%r13
  4020ff:	49 89 d4             	mov    %rdx,%r12
  402102:	48 89 f5             	mov    %rsi,%rbp
  402105:	bb 01 00 00 00       	mov    $0x1,%ebx
  40210a:	4c 39 e3             	cmp    %r12,%rbx
  40210d:	73 47                	jae    402156 <rio_readlineb+0x64>
  40210f:	48 8d 74 24 0f       	lea    0xf(%rsp),%rsi
  402114:	ba 01 00 00 00       	mov    $0x1,%edx
  402119:	4c 89 ef             	mov    %r13,%rdi
  40211c:	e8 46 ff ff ff       	callq  402067 <rio_read>
  402121:	83 f8 01             	cmp    $0x1,%eax
  402124:	75 1c                	jne    402142 <rio_readlineb+0x50>
  402126:	48 8d 45 01          	lea    0x1(%rbp),%rax
  40212a:	0f b6 54 24 0f       	movzbl 0xf(%rsp),%edx
  40212f:	88 55 00             	mov    %dl,0x0(%rbp)
  402132:	80 7c 24 0f 0a       	cmpb   $0xa,0xf(%rsp)
  402137:	74 1a                	je     402153 <rio_readlineb+0x61>
  402139:	48 83 c3 01          	add    $0x1,%rbx
  40213d:	48 89 c5             	mov    %rax,%rbp
  402140:	eb c8                	jmp    40210a <rio_readlineb+0x18>
  402142:	85 c0                	test   %eax,%eax
  402144:	75 22                	jne    402168 <rio_readlineb+0x76>
  402146:	48 83 fb 01          	cmp    $0x1,%rbx
  40214a:	75 0a                	jne    402156 <rio_readlineb+0x64>
  40214c:	b8 00 00 00 00       	mov    $0x0,%eax
  402151:	eb 0a                	jmp    40215d <rio_readlineb+0x6b>
  402153:	48 89 c5             	mov    %rax,%rbp
  402156:	c6 45 00 00          	movb   $0x0,0x0(%rbp)
  40215a:	48 89 d8             	mov    %rbx,%rax
  40215d:	48 83 c4 18          	add    $0x18,%rsp
  402161:	5b                   	pop    %rbx
  402162:	5d                   	pop    %rbp
  402163:	41 5c                	pop    %r12
  402165:	41 5d                	pop    %r13
  402167:	c3                   	retq   
  402168:	48 c7 c0 ff ff ff ff 	mov    $0xffffffffffffffff,%rax
  40216f:	eb ec                	jmp    40215d <rio_readlineb+0x6b>

0000000000402171 <submitr>:
  402171:	41 57                	push   %r15
  402173:	41 56                	push   %r14
  402175:	41 55                	push   %r13
  402177:	41 54                	push   %r12
  402179:	55                   	push   %rbp
  40217a:	53                   	push   %rbx
  40217b:	48 81 ec 58 a0 00 00 	sub    $0xa058,%rsp
  402182:	49 89 fd             	mov    %rdi,%r13
  402185:	89 74 24 14          	mov    %esi,0x14(%rsp)
  402189:	49 89 d7             	mov    %rdx,%r15
  40218c:	48 89 4c 24 08       	mov    %rcx,0x8(%rsp)
  402191:	4c 89 44 24 18       	mov    %r8,0x18(%rsp)
  402196:	4d 89 ce             	mov    %r9,%r14
  402199:	48 8b 9c 24 90 a0 00 	mov    0xa090(%rsp),%rbx
  4021a0:	00 
  4021a1:	c7 84 24 2c 20 00 00 	movl   $0x0,0x202c(%rsp)
  4021a8:	00 00 00 00 
  4021ac:	ba 00 00 00 00       	mov    $0x0,%edx
  4021b1:	be 01 00 00 00       	mov    $0x1,%esi
  4021b6:	bf 02 00 00 00       	mov    $0x2,%edi
  4021bb:	e8 10 ec ff ff       	callq  400dd0 <socket@plt>
  4021c0:	85 c0                	test   %eax,%eax
  4021c2:	0f 88 ca 01 00 00    	js     402392 <submitr+0x221>
  4021c8:	89 c5                	mov    %eax,%ebp
  4021ca:	4c 89 ef             	mov    %r13,%rdi
  4021cd:	e8 ee ea ff ff       	callq  400cc0 <gethostbyname@plt>
  4021d2:	48 85 c0             	test   %rax,%rax
  4021d5:	0f 84 05 02 00 00    	je     4023e0 <submitr+0x26f>
  4021db:	4c 8d a4 24 40 a0 00 	lea    0xa040(%rsp),%r12
  4021e2:	00 
  4021e3:	48 c7 84 24 40 a0 00 	movq   $0x0,0xa040(%rsp)
  4021ea:	00 00 00 00 00 
  4021ef:	48 c7 84 24 48 a0 00 	movq   $0x0,0xa048(%rsp)
  4021f6:	00 00 00 00 00 
  4021fb:	66 c7 84 24 40 a0 00 	movw   $0x2,0xa040(%rsp)
  402202:	00 02 00 
  402205:	48 8b 48 18          	mov    0x18(%rax),%rcx
  402209:	48 63 50 14          	movslq 0x14(%rax),%rdx
  40220d:	48 8d b4 24 44 a0 00 	lea    0xa044(%rsp),%rsi
  402214:	00 
  402215:	48 8b 39             	mov    (%rcx),%rdi
  402218:	e8 33 eb ff ff       	callq  400d50 <bcopy@plt>
  40221d:	0f b7 44 24 14       	movzwl 0x14(%rsp),%eax
  402222:	66 c1 c8 08          	ror    $0x8,%ax
  402226:	66 89 84 24 42 a0 00 	mov    %ax,0xa042(%rsp)
  40222d:	00 
  40222e:	ba 10 00 00 00       	mov    $0x10,%edx
  402233:	4c 89 e6             	mov    %r12,%rsi
  402236:	89 ef                	mov    %ebp,%edi
  402238:	e8 83 eb ff ff       	callq  400dc0 <connect@plt>
  40223d:	85 c0                	test   %eax,%eax
  40223f:	0f 88 02 02 00 00    	js     402447 <submitr+0x2d6>
  402245:	48 c7 c6 ff ff ff ff 	mov    $0xffffffffffffffff,%rsi
  40224c:	b8 00 00 00 00       	mov    $0x0,%eax
  402251:	48 89 f1             	mov    %rsi,%rcx
  402254:	4c 89 f7             	mov    %r14,%rdi
  402257:	f2 ae                	repnz scas %es:(%rdi),%al
  402259:	48 f7 d1             	not    %rcx
  40225c:	48 89 ca             	mov    %rcx,%rdx
  40225f:	48 89 f1             	mov    %rsi,%rcx
  402262:	4c 89 ff             	mov    %r15,%rdi
  402265:	f2 ae                	repnz scas %es:(%rdi),%al
  402267:	48 f7 d1             	not    %rcx
  40226a:	49 89 c8             	mov    %rcx,%r8
  40226d:	48 89 f1             	mov    %rsi,%rcx
  402270:	48 8b 7c 24 08       	mov    0x8(%rsp),%rdi
  402275:	f2 ae                	repnz scas %es:(%rdi),%al
  402277:	48 f7 d1             	not    %rcx
  40227a:	4d 8d 44 08 fe       	lea    -0x2(%r8,%rcx,1),%r8
  40227f:	48 89 f1             	mov    %rsi,%rcx
  402282:	48 8b 7c 24 18       	mov    0x18(%rsp),%rdi
  402287:	f2 ae                	repnz scas %es:(%rdi),%al
  402289:	48 89 c8             	mov    %rcx,%rax
  40228c:	48 f7 d0             	not    %rax
  40228f:	49 8d 4c 00 ff       	lea    -0x1(%r8,%rax,1),%rcx
  402294:	48 8d 44 52 fd       	lea    -0x3(%rdx,%rdx,2),%rax
  402299:	48 8d 84 01 80 00 00 	lea    0x80(%rcx,%rax,1),%rax
  4022a0:	00 
  4022a1:	48 3d 00 20 00 00    	cmp    $0x2000,%rax
  4022a7:	0f 87 f3 01 00 00    	ja     4024a0 <submitr+0x32f>
  4022ad:	48 8d b4 24 30 40 00 	lea    0x4030(%rsp),%rsi
  4022b4:	00 
  4022b5:	b9 00 04 00 00       	mov    $0x400,%ecx
  4022ba:	b8 00 00 00 00       	mov    $0x0,%eax
  4022bf:	48 89 f7             	mov    %rsi,%rdi
  4022c2:	f3 48 ab             	rep stos %rax,%es:(%rdi)
  4022c5:	4c 89 f7             	mov    %r14,%rdi
  4022c8:	e8 60 fc ff ff       	callq  401f2d <urlencode>
  4022cd:	85 c0                	test   %eax,%eax
  4022cf:	0f 88 3d 02 00 00    	js     402512 <submitr+0x3a1>
  4022d5:	4c 8d a4 24 30 60 00 	lea    0x6030(%rsp),%r12
  4022dc:	00 
  4022dd:	4d 89 e9             	mov    %r13,%r9
  4022e0:	4c 8d 84 24 30 40 00 	lea    0x4030(%rsp),%r8
  4022e7:	00 
  4022e8:	4c 89 f9             	mov    %r15,%rcx
  4022eb:	48 8b 54 24 08       	mov    0x8(%rsp),%rdx
  4022f0:	48 8d 35 11 10 00 00 	lea    0x1011(%rip),%rsi        # 403308 <trans_char+0x38>
  4022f7:	4c 89 e7             	mov    %r12,%rdi
  4022fa:	b8 00 00 00 00       	mov    $0x0,%eax
  4022ff:	e8 9c ea ff ff       	callq  400da0 <sprintf@plt>
  402304:	b8 00 00 00 00       	mov    $0x0,%eax
  402309:	48 c7 c1 ff ff ff ff 	mov    $0xffffffffffffffff,%rcx
  402310:	4c 89 e7             	mov    %r12,%rdi
  402313:	f2 ae                	repnz scas %es:(%rdi),%al
  402315:	48 f7 d1             	not    %rcx
  402318:	48 8d 51 ff          	lea    -0x1(%rcx),%rdx
  40231c:	4c 89 e6             	mov    %r12,%rsi
  40231f:	89 ef                	mov    %ebp,%edi
  402321:	e8 e3 fc ff ff       	callq  402009 <rio_writen>
  402326:	48 85 c0             	test   %rax,%rax
  402329:	0f 88 6d 02 00 00    	js     40259c <submitr+0x42b>
  40232f:	4c 8d a4 24 30 80 00 	lea    0x8030(%rsp),%r12
  402336:	00 
  402337:	89 ee                	mov    %ebp,%esi
  402339:	4c 89 e7             	mov    %r12,%rdi
  40233c:	e8 af fb ff ff       	callq  401ef0 <rio_readinitb>
  402341:	48 8d b4 24 30 60 00 	lea    0x6030(%rsp),%rsi
  402348:	00 
  402349:	ba 00 20 00 00       	mov    $0x2000,%edx
  40234e:	4c 89 e7             	mov    %r12,%rdi
  402351:	e8 9c fd ff ff       	callq  4020f2 <rio_readlineb>
  402356:	48 85 c0             	test   %rax,%rax
  402359:	0f 8e ab 02 00 00    	jle    40260a <submitr+0x499>
  40235f:	48 8d 8c 24 2c 20 00 	lea    0x202c(%rsp),%rcx
  402366:	00 
  402367:	48 8d 94 24 30 20 00 	lea    0x2030(%rsp),%rdx
  40236e:	00 
  40236f:	48 8d bc 24 30 60 00 	lea    0x6030(%rsp),%rdi
  402376:	00 
  402377:	4c 8d 44 24 20       	lea    0x20(%rsp),%r8
  40237c:	48 8d 35 fc 0f 00 00 	lea    0xffc(%rip),%rsi        # 40337f <trans_char+0xaf>
  402383:	b8 00 00 00 00       	mov    $0x0,%eax
  402388:	e8 a3 e9 ff ff       	callq  400d30 <__isoc99_sscanf@plt>
  40238d:	e9 9f 03 00 00       	jmpq   402731 <submitr+0x5c0>
  402392:	48 b8 45 72 72 6f 72 	movabs $0x43203a726f727245,%rax
  402399:	3a 20 43 
  40239c:	48 89 03             	mov    %rax,(%rbx)
  40239f:	48 b8 6c 69 65 6e 74 	movabs $0x6e7520746e65696c,%rax
  4023a6:	20 75 6e 
  4023a9:	48 89 43 08          	mov    %rax,0x8(%rbx)
  4023ad:	48 b8 61 62 6c 65 20 	movabs $0x206f7420656c6261,%rax
  4023b4:	74 6f 20 
  4023b7:	48 89 43 10          	mov    %rax,0x10(%rbx)
  4023bb:	48 b8 63 72 65 61 74 	movabs $0x7320657461657263,%rax
  4023c2:	65 20 73 
  4023c5:	48 89 43 18          	mov    %rax,0x18(%rbx)
  4023c9:	c7 43 20 6f 63 6b 65 	movl   $0x656b636f,0x20(%rbx)
  4023d0:	66 c7 43 24 74 00    	movw   $0x74,0x24(%rbx)
  4023d6:	b8 ff ff ff ff       	mov    $0xffffffff,%eax
  4023db:	e9 18 03 00 00       	jmpq   4026f8 <submitr+0x587>
  4023e0:	48 b8 45 72 72 6f 72 	movabs $0x44203a726f727245,%rax
  4023e7:	3a 20 44 
  4023ea:	48 89 03             	mov    %rax,(%rbx)
  4023ed:	48 b8 4e 53 20 69 73 	movabs $0x6e7520736920534e,%rax
  4023f4:	20 75 6e 
  4023f7:	48 89 43 08          	mov    %rax,0x8(%rbx)
  4023fb:	48 b8 61 62 6c 65 20 	movabs $0x206f7420656c6261,%rax
  402402:	74 6f 20 
  402405:	48 89 43 10          	mov    %rax,0x10(%rbx)
  402409:	48 b8 72 65 73 6f 6c 	movabs $0x2065766c6f736572,%rax
  402410:	76 65 20 
  402413:	48 89 43 18          	mov    %rax,0x18(%rbx)
  402417:	48 b8 73 65 72 76 65 	movabs $0x6120726576726573,%rax
  40241e:	72 20 61 
  402421:	48 89 43 20          	mov    %rax,0x20(%rbx)
  402425:	c7 43 28 64 64 72 65 	movl   $0x65726464,0x28(%rbx)
  40242c:	66 c7 43 2c 73 73    	movw   $0x7373,0x2c(%rbx)
  402432:	c6 43 2e 00          	movb   $0x0,0x2e(%rbx)
  402436:	89 ef                	mov    %ebp,%edi
  402438:	e8 53 e8 ff ff       	callq  400c90 <close@plt>
  40243d:	b8 ff ff ff ff       	mov    $0xffffffff,%eax
  402442:	e9 b1 02 00 00       	jmpq   4026f8 <submitr+0x587>
  402447:	48 b8 45 72 72 6f 72 	movabs $0x55203a726f727245,%rax
  40244e:	3a 20 55 
  402451:	48 89 03             	mov    %rax,(%rbx)
  402454:	48 b8 6e 61 62 6c 65 	movabs $0x6f7420656c62616e,%rax
  40245b:	20 74 6f 
  40245e:	48 89 43 08          	mov    %rax,0x8(%rbx)
  402462:	48 b8 20 63 6f 6e 6e 	movabs $0x7463656e6e6f6320,%rax
  402469:	65 63 74 
  40246c:	48 89 43 10          	mov    %rax,0x10(%rbx)
  402470:	48 b8 20 74 6f 20 74 	movabs $0x20656874206f7420,%rax
  402477:	68 65 20 
  40247a:	48 89 43 18          	mov    %rax,0x18(%rbx)
  40247e:	c7 43 20 73 65 72 76 	movl   $0x76726573,0x20(%rbx)
  402485:	66 c7 43 24 65 72    	movw   $0x7265,0x24(%rbx)
  40248b:	c6 43 26 00          	movb   $0x0,0x26(%rbx)
  40248f:	89 ef                	mov    %ebp,%edi
  402491:	e8 fa e7 ff ff       	callq  400c90 <close@plt>
  402496:	b8 ff ff ff ff       	mov    $0xffffffff,%eax
  40249b:	e9 58 02 00 00       	jmpq   4026f8 <submitr+0x587>
  4024a0:	48 b8 45 72 72 6f 72 	movabs $0x52203a726f727245,%rax
  4024a7:	3a 20 52 
  4024aa:	48 89 03             	mov    %rax,(%rbx)
  4024ad:	48 b8 65 73 75 6c 74 	movabs $0x747320746c757365,%rax
  4024b4:	20 73 74 
  4024b7:	48 89 43 08          	mov    %rax,0x8(%rbx)
  4024bb:	48 b8 72 69 6e 67 20 	movabs $0x6f6f7420676e6972,%rax
  4024c2:	74 6f 6f 
  4024c5:	48 89 43 10          	mov    %rax,0x10(%rbx)
  4024c9:	48 b8 20 6c 61 72 67 	movabs $0x202e656772616c20,%rax
  4024d0:	65 2e 20 
  4024d3:	48 89 43 18          	mov    %rax,0x18(%rbx)
  4024d7:	48 b8 49 6e 63 72 65 	movabs $0x6573616572636e49,%rax
  4024de:	61 73 65 
  4024e1:	48 89 43 20          	mov    %rax,0x20(%rbx)
  4024e5:	48 b8 20 53 55 42 4d 	movabs $0x5254494d42555320,%rax
  4024ec:	49 54 52 
  4024ef:	48 89 43 28          	mov    %rax,0x28(%rbx)
  4024f3:	48 b8 5f 4d 41 58 42 	movabs $0x46554258414d5f,%rax
  4024fa:	55 46 00 
  4024fd:	48 89 43 30          	mov    %rax,0x30(%rbx)
  402501:	89 ef                	mov    %ebp,%edi
  402503:	e8 88 e7 ff ff       	callq  400c90 <close@plt>
  402508:	b8 ff ff ff ff       	mov    $0xffffffff,%eax
  40250d:	e9 e6 01 00 00       	jmpq   4026f8 <submitr+0x587>
  402512:	48 b8 45 72 72 6f 72 	movabs $0x52203a726f727245,%rax
  402519:	3a 20 52 
  40251c:	48 89 03             	mov    %rax,(%rbx)
  40251f:	48 b8 65 73 75 6c 74 	movabs $0x747320746c757365,%rax
  402526:	20 73 74 
  402529:	48 89 43 08          	mov    %rax,0x8(%rbx)
  40252d:	48 b8 72 69 6e 67 20 	movabs $0x6e6f6320676e6972,%rax
  402534:	63 6f 6e 
  402537:	48 89 43 10          	mov    %rax,0x10(%rbx)
  40253b:	48 b8 74 61 69 6e 73 	movabs $0x6e6120736e696174,%rax
  402542:	20 61 6e 
  402545:	48 89 43 18          	mov    %rax,0x18(%rbx)
  402549:	48 b8 20 69 6c 6c 65 	movabs $0x6c6167656c6c6920,%rax
  402550:	67 61 6c 
  402553:	48 89 43 20          	mov    %rax,0x20(%rbx)
  402557:	48 b8 20 6f 72 20 75 	movabs $0x72706e7520726f20,%rax
  40255e:	6e 70 72 
  402561:	48 89 43 28          	mov    %rax,0x28(%rbx)
  402565:	48 b8 69 6e 74 61 62 	movabs $0x20656c6261746e69,%rax
  40256c:	6c 65 20 
  40256f:	48 89 43 30          	mov    %rax,0x30(%rbx)
  402573:	48 b8 63 68 61 72 61 	movabs $0x6574636172616863,%rax
  40257a:	63 74 65 
  40257d:	48 89 43 38          	mov    %rax,0x38(%rbx)
  402581:	66 c7 43 40 72 2e    	movw   $0x2e72,0x40(%rbx)
  402587:	c6 43 42 00          	movb   $0x0,0x42(%rbx)
  40258b:	89 ef                	mov    %ebp,%edi
  40258d:	e8 fe e6 ff ff       	callq  400c90 <close@plt>
  402592:	b8 ff ff ff ff       	mov    $0xffffffff,%eax
  402597:	e9 5c 01 00 00       	jmpq   4026f8 <submitr+0x587>
  40259c:	48 b8 45 72 72 6f 72 	movabs $0x43203a726f727245,%rax
  4025a3:	3a 20 43 
  4025a6:	48 89 03             	mov    %rax,(%rbx)
  4025a9:	48 b8 6c 69 65 6e 74 	movabs $0x6e7520746e65696c,%rax
  4025b0:	20 75 6e 
  4025b3:	48 89 43 08          	mov    %rax,0x8(%rbx)
  4025b7:	48 b8 61 62 6c 65 20 	movabs $0x206f7420656c6261,%rax
  4025be:	74 6f 20 
  4025c1:	48 89 43 10          	mov    %rax,0x10(%rbx)
  4025c5:	48 b8 77 72 69 74 65 	movabs $0x6f74206574697277,%rax
  4025cc:	20 74 6f 
  4025cf:	48 89 43 18          	mov    %rax,0x18(%rbx)
  4025d3:	48 b8 20 74 68 65 20 	movabs $0x7365722065687420,%rax
  4025da:	72 65 73 
  4025dd:	48 89 43 20          	mov    %rax,0x20(%rbx)
  4025e1:	48 b8 75 6c 74 20 73 	movabs $0x7672657320746c75,%rax
  4025e8:	65 72 76 
  4025eb:	48 89 43 28          	mov    %rax,0x28(%rbx)
  4025ef:	66 c7 43 30 65 72    	movw   $0x7265,0x30(%rbx)
  4025f5:	c6 43 32 00          	movb   $0x0,0x32(%rbx)
  4025f9:	89 ef                	mov    %ebp,%edi
  4025fb:	e8 90 e6 ff ff       	callq  400c90 <close@plt>
  402600:	b8 ff ff ff ff       	mov    $0xffffffff,%eax
  402605:	e9 ee 00 00 00       	jmpq   4026f8 <submitr+0x587>
  40260a:	48 b8 45 72 72 6f 72 	movabs $0x43203a726f727245,%rax
  402611:	3a 20 43 
  402614:	48 89 03             	mov    %rax,(%rbx)
  402617:	48 b8 6c 69 65 6e 74 	movabs $0x6e7520746e65696c,%rax
  40261e:	20 75 6e 
  402621:	48 89 43 08          	mov    %rax,0x8(%rbx)
  402625:	48 b8 61 62 6c 65 20 	movabs $0x206f7420656c6261,%rax
  40262c:	74 6f 20 
  40262f:	48 89 43 10          	mov    %rax,0x10(%rbx)
  402633:	48 b8 72 65 61 64 20 	movabs $0x7269662064616572,%rax
  40263a:	66 69 72 
  40263d:	48 89 43 18          	mov    %rax,0x18(%rbx)
  402641:	48 b8 73 74 20 68 65 	movabs $0x6564616568207473,%rax
  402648:	61 64 65 
  40264b:	48 89 43 20          	mov    %rax,0x20(%rbx)
  40264f:	48 b8 72 20 66 72 6f 	movabs $0x72206d6f72662072,%rax
  402656:	6d 20 72 
  402659:	48 89 43 28          	mov    %rax,0x28(%rbx)
  40265d:	48 b8 65 73 75 6c 74 	movabs $0x657320746c757365,%rax
  402664:	20 73 65 
  402667:	48 89 43 30          	mov    %rax,0x30(%rbx)
  40266b:	c7 43 38 72 76 65 72 	movl   $0x72657672,0x38(%rbx)
  402672:	c6 43 3c 00          	movb   $0x0,0x3c(%rbx)
  402676:	89 ef                	mov    %ebp,%edi
  402678:	e8 13 e6 ff ff       	callq  400c90 <close@plt>
  40267d:	b8 ff ff ff ff       	mov    $0xffffffff,%eax
  402682:	eb 74                	jmp    4026f8 <submitr+0x587>
  402684:	48 b8 45 72 72 6f 72 	movabs $0x43203a726f727245,%rax
  40268b:	3a 20 43 
  40268e:	48 89 03             	mov    %rax,(%rbx)
  402691:	48 b8 6c 69 65 6e 74 	movabs $0x6e7520746e65696c,%rax
  402698:	20 75 6e 
  40269b:	48 89 43 08          	mov    %rax,0x8(%rbx)
  40269f:	48 b8 61 62 6c 65 20 	movabs $0x206f7420656c6261,%rax
  4026a6:	74 6f 20 
  4026a9:	48 89 43 10          	mov    %rax,0x10(%rbx)
  4026ad:	48 b8 72 65 61 64 20 	movabs $0x6165682064616572,%rax
  4026b4:	68 65 61 
  4026b7:	48 89 43 18          	mov    %rax,0x18(%rbx)
  4026bb:	48 b8 64 65 72 73 20 	movabs $0x6f72662073726564,%rax
  4026c2:	66 72 6f 
  4026c5:	48 89 43 20          	mov    %rax,0x20(%rbx)
  4026c9:	48 b8 6d 20 74 68 65 	movabs $0x657220656874206d,%rax
  4026d0:	20 72 65 
  4026d3:	48 89 43 28          	mov    %rax,0x28(%rbx)
  4026d7:	48 b8 73 75 6c 74 20 	movabs $0x72657320746c7573,%rax
  4026de:	73 65 72 
  4026e1:	48 89 43 30          	mov    %rax,0x30(%rbx)
  4026e5:	c7 43 38 76 65 72 00 	movl   $0x726576,0x38(%rbx)
  4026ec:	89 ef                	mov    %ebp,%edi
  4026ee:	e8 9d e5 ff ff       	callq  400c90 <close@plt>
  4026f3:	b8 ff ff ff ff       	mov    $0xffffffff,%eax
  4026f8:	48 81 c4 58 a0 00 00 	add    $0xa058,%rsp
  4026ff:	5b                   	pop    %rbx
  402700:	5d                   	pop    %rbp
  402701:	41 5c                	pop    %r12
  402703:	41 5d                	pop    %r13
  402705:	41 5e                	pop    %r14
  402707:	41 5f                	pop    %r15
  402709:	c3                   	retq   
  40270a:	85 c0                	test   %eax,%eax
  40270c:	74 51                	je     40275f <submitr+0x5ee>
  40270e:	48 8d b4 24 30 60 00 	lea    0x6030(%rsp),%rsi
  402715:	00 
  402716:	48 8d bc 24 30 80 00 	lea    0x8030(%rsp),%rdi
  40271d:	00 
  40271e:	ba 00 20 00 00       	mov    $0x2000,%edx
  402723:	e8 ca f9 ff ff       	callq  4020f2 <rio_readlineb>
  402728:	48 85 c0             	test   %rax,%rax
  40272b:	0f 8e 53 ff ff ff    	jle    402684 <submitr+0x513>
  402731:	0f b6 94 24 30 60 00 	movzbl 0x6030(%rsp),%edx
  402738:	00 
  402739:	b8 0d 00 00 00       	mov    $0xd,%eax
  40273e:	29 d0                	sub    %edx,%eax
  402740:	75 c8                	jne    40270a <submitr+0x599>
  402742:	0f b6 94 24 31 60 00 	movzbl 0x6031(%rsp),%edx
  402749:	00 
  40274a:	b8 0a 00 00 00       	mov    $0xa,%eax
  40274f:	29 d0                	sub    %edx,%eax
  402751:	75 b7                	jne    40270a <submitr+0x599>
  402753:	0f b6 84 24 32 60 00 	movzbl 0x6032(%rsp),%eax
  40275a:	00 
  40275b:	f7 d8                	neg    %eax
  40275d:	eb ab                	jmp    40270a <submitr+0x599>
  40275f:	48 8d b4 24 30 60 00 	lea    0x6030(%rsp),%rsi
  402766:	00 
  402767:	48 8d bc 24 30 80 00 	lea    0x8030(%rsp),%rdi
  40276e:	00 
  40276f:	ba 00 20 00 00       	mov    $0x2000,%edx
  402774:	e8 79 f9 ff ff       	callq  4020f2 <rio_readlineb>
  402779:	48 85 c0             	test   %rax,%rax
  40277c:	7e 67                	jle    4027e5 <submitr+0x674>
  40277e:	8b 94 24 2c 20 00 00 	mov    0x202c(%rsp),%edx
  402785:	81 fa c8 00 00 00    	cmp    $0xc8,%edx
  40278b:	0f 85 d7 00 00 00    	jne    402868 <submitr+0x6f7>
  402791:	48 8d b4 24 30 60 00 	lea    0x6030(%rsp),%rsi
  402798:	00 
  402799:	48 89 df             	mov    %rbx,%rdi
  40279c:	e8 7f e4 ff ff       	callq  400c20 <strcpy@plt>
  4027a1:	89 ef                	mov    %ebp,%edi
  4027a3:	e8 e8 e4 ff ff       	callq  400c90 <close@plt>
  4027a8:	0f b6 03             	movzbl (%rbx),%eax
  4027ab:	ba 4f 00 00 00       	mov    $0x4f,%edx
  4027b0:	29 c2                	sub    %eax,%edx
  4027b2:	0f 85 da 00 00 00    	jne    402892 <submitr+0x721>
  4027b8:	0f b6 4b 01          	movzbl 0x1(%rbx),%ecx
  4027bc:	b8 4b 00 00 00       	mov    $0x4b,%eax
  4027c1:	29 c8                	sub    %ecx,%eax
  4027c3:	0f 85 cb 00 00 00    	jne    402894 <submitr+0x723>
  4027c9:	0f b6 4b 02          	movzbl 0x2(%rbx),%ecx
  4027cd:	b8 0a 00 00 00       	mov    $0xa,%eax
  4027d2:	29 c8                	sub    %ecx,%eax
  4027d4:	0f 85 ba 00 00 00    	jne    402894 <submitr+0x723>
  4027da:	0f b6 43 03          	movzbl 0x3(%rbx),%eax
  4027de:	f7 d8                	neg    %eax
  4027e0:	e9 af 00 00 00       	jmpq   402894 <submitr+0x723>
  4027e5:	48 b8 45 72 72 6f 72 	movabs $0x43203a726f727245,%rax
  4027ec:	3a 20 43 
  4027ef:	48 89 03             	mov    %rax,(%rbx)
  4027f2:	48 b8 6c 69 65 6e 74 	movabs $0x6e7520746e65696c,%rax
  4027f9:	20 75 6e 
  4027fc:	48 89 43 08          	mov    %rax,0x8(%rbx)
  402800:	48 b8 61 62 6c 65 20 	movabs $0x206f7420656c6261,%rax
  402807:	74 6f 20 
  40280a:	48 89 43 10          	mov    %rax,0x10(%rbx)
  40280e:	48 b8 72 65 61 64 20 	movabs $0x6174732064616572,%rax
  402815:	73 74 61 
  402818:	48 89 43 18          	mov    %rax,0x18(%rbx)
  40281c:	48 b8 74 75 73 20 6d 	movabs $0x7373656d20737574,%rax
  402823:	65 73 73 
  402826:	48 89 43 20          	mov    %rax,0x20(%rbx)
  40282a:	48 b8 61 67 65 20 66 	movabs $0x6d6f726620656761,%rax
  402831:	72 6f 6d 
  402834:	48 89 43 28          	mov    %rax,0x28(%rbx)
  402838:	48 b8 20 72 65 73 75 	movabs $0x20746c7573657220,%rax
  40283f:	6c 74 20 
  402842:	48 89 43 30          	mov    %rax,0x30(%rbx)
  402846:	c7 43 38 73 65 72 76 	movl   $0x76726573,0x38(%rbx)
  40284d:	66 c7 43 3c 65 72    	movw   $0x7265,0x3c(%rbx)
  402853:	c6 43 3e 00          	movb   $0x0,0x3e(%rbx)
  402857:	89 ef                	mov    %ebp,%edi
  402859:	e8 32 e4 ff ff       	callq  400c90 <close@plt>
  40285e:	b8 ff ff ff ff       	mov    $0xffffffff,%eax
  402863:	e9 90 fe ff ff       	jmpq   4026f8 <submitr+0x587>
  402868:	48 8d 4c 24 20       	lea    0x20(%rsp),%rcx
  40286d:	48 8d 35 d4 0a 00 00 	lea    0xad4(%rip),%rsi        # 403348 <trans_char+0x78>
  402874:	48 89 df             	mov    %rbx,%rdi
  402877:	b8 00 00 00 00       	mov    $0x0,%eax
  40287c:	e8 1f e5 ff ff       	callq  400da0 <sprintf@plt>
  402881:	89 ef                	mov    %ebp,%edi
  402883:	e8 08 e4 ff ff       	callq  400c90 <close@plt>
  402888:	b8 ff ff ff ff       	mov    $0xffffffff,%eax
  40288d:	e9 66 fe ff ff       	jmpq   4026f8 <submitr+0x587>
  402892:	89 d0                	mov    %edx,%eax
  402894:	f7 d8                	neg    %eax
  402896:	0f 84 5c fe ff ff    	je     4026f8 <submitr+0x587>
  40289c:	b9 05 00 00 00       	mov    $0x5,%ecx
  4028a1:	48 8d 3d e8 0a 00 00 	lea    0xae8(%rip),%rdi        # 403390 <trans_char+0xc0>
  4028a8:	48 89 de             	mov    %rbx,%rsi
  4028ab:	f3 a6                	repz cmpsb %es:(%rdi),%ds:(%rsi)
  4028ad:	0f 97 c0             	seta   %al
  4028b0:	0f 92 c1             	setb   %cl
  4028b3:	29 c8                	sub    %ecx,%eax
  4028b5:	0f be c0             	movsbl %al,%eax
  4028b8:	85 c0                	test   %eax,%eax
  4028ba:	0f 84 38 fe ff ff    	je     4026f8 <submitr+0x587>
  4028c0:	85 d2                	test   %edx,%edx
  4028c2:	75 13                	jne    4028d7 <submitr+0x766>
  4028c4:	0f b6 43 01          	movzbl 0x1(%rbx),%eax
  4028c8:	ba 4b 00 00 00       	mov    $0x4b,%edx
  4028cd:	29 c2                	sub    %eax,%edx
  4028cf:	75 06                	jne    4028d7 <submitr+0x766>
  4028d1:	0f b6 53 02          	movzbl 0x2(%rbx),%edx
  4028d5:	f7 da                	neg    %edx
  4028d7:	89 d0                	mov    %edx,%eax
  4028d9:	f7 d8                	neg    %eax
  4028db:	0f 84 17 fe ff ff    	je     4026f8 <submitr+0x587>
  4028e1:	b8 ff ff ff ff       	mov    $0xffffffff,%eax
  4028e6:	e9 0d fe ff ff       	jmpq   4026f8 <submitr+0x587>

00000000004028eb <init_timeout>:
  4028eb:	85 ff                	test   %edi,%edi
  4028ed:	74 20                	je     40290f <init_timeout+0x24>
  4028ef:	53                   	push   %rbx
  4028f0:	89 fb                	mov    %edi,%ebx
  4028f2:	85 ff                	test   %edi,%edi
  4028f4:	78 1b                	js     402911 <init_timeout+0x26>
  4028f6:	48 8d 35 05 f6 ff ff 	lea    -0x9fb(%rip),%rsi        # 401f02 <sigalrm_handler>
  4028fd:	bf 0e 00 00 00       	mov    $0xe,%edi
  402902:	e8 a9 e3 ff ff       	callq  400cb0 <signal@plt>
  402907:	89 df                	mov    %ebx,%edi
  402909:	e8 72 e3 ff ff       	callq  400c80 <alarm@plt>
  40290e:	5b                   	pop    %rbx
  40290f:	f3 c3                	repz retq 
  402911:	bb 00 00 00 00       	mov    $0x0,%ebx
  402916:	eb de                	jmp    4028f6 <init_timeout+0xb>

0000000000402918 <init_driver>:
  402918:	41 54                	push   %r12
  40291a:	55                   	push   %rbp
  40291b:	53                   	push   %rbx
  40291c:	48 83 ec 10          	sub    $0x10,%rsp
  402920:	48 89 fd             	mov    %rdi,%rbp
  402923:	be 01 00 00 00       	mov    $0x1,%esi
  402928:	bf 0d 00 00 00       	mov    $0xd,%edi
  40292d:	e8 7e e3 ff ff       	callq  400cb0 <signal@plt>
  402932:	be 01 00 00 00       	mov    $0x1,%esi
  402937:	bf 1d 00 00 00       	mov    $0x1d,%edi
  40293c:	e8 6f e3 ff ff       	callq  400cb0 <signal@plt>
  402941:	be 01 00 00 00       	mov    $0x1,%esi
  402946:	bf 1d 00 00 00       	mov    $0x1d,%edi
  40294b:	e8 60 e3 ff ff       	callq  400cb0 <signal@plt>
  402950:	ba 00 00 00 00       	mov    $0x0,%edx
  402955:	be 01 00 00 00       	mov    $0x1,%esi
  40295a:	bf 02 00 00 00       	mov    $0x2,%edi
  40295f:	e8 6c e4 ff ff       	callq  400dd0 <socket@plt>
  402964:	85 c0                	test   %eax,%eax
  402966:	0f 88 80 00 00 00    	js     4029ec <init_driver+0xd4>
  40296c:	89 c3                	mov    %eax,%ebx
  40296e:	48 8d 3d 59 05 00 00 	lea    0x559(%rip),%rdi        # 402ece <_IO_stdin_used+0x28e>
  402975:	e8 46 e3 ff ff       	callq  400cc0 <gethostbyname@plt>
  40297a:	48 85 c0             	test   %rax,%rax
  40297d:	0f 84 b5 00 00 00    	je     402a38 <init_driver+0x120>
  402983:	48 c7 04 24 00 00 00 	movq   $0x0,(%rsp)
  40298a:	00 
  40298b:	48 c7 44 24 08 00 00 	movq   $0x0,0x8(%rsp)
  402992:	00 00 
  402994:	66 c7 04 24 02 00    	movw   $0x2,(%rsp)
  40299a:	48 8b 48 18          	mov    0x18(%rax),%rcx
  40299e:	48 63 50 14          	movslq 0x14(%rax),%rdx
  4029a2:	48 8d 74 24 04       	lea    0x4(%rsp),%rsi
  4029a7:	48 8b 39             	mov    (%rcx),%rdi
  4029aa:	e8 a1 e3 ff ff       	callq  400d50 <bcopy@plt>
  4029af:	66 c7 44 24 02 3c 9a 	movw   $0x9a3c,0x2(%rsp)
  4029b6:	ba 10 00 00 00       	mov    $0x10,%edx
  4029bb:	48 89 e6             	mov    %rsp,%rsi
  4029be:	89 df                	mov    %ebx,%edi
  4029c0:	e8 fb e3 ff ff       	callq  400dc0 <connect@plt>
  4029c5:	85 c0                	test   %eax,%eax
  4029c7:	0f 88 d3 00 00 00    	js     402aa0 <init_driver+0x188>
  4029cd:	89 df                	mov    %ebx,%edi
  4029cf:	e8 bc e2 ff ff       	callq  400c90 <close@plt>
  4029d4:	66 c7 45 00 4f 4b    	movw   $0x4b4f,0x0(%rbp)
  4029da:	c6 45 02 00          	movb   $0x0,0x2(%rbp)
  4029de:	b8 00 00 00 00       	mov    $0x0,%eax
  4029e3:	48 83 c4 10          	add    $0x10,%rsp
  4029e7:	5b                   	pop    %rbx
  4029e8:	5d                   	pop    %rbp
  4029e9:	41 5c                	pop    %r12
  4029eb:	c3                   	retq   
  4029ec:	48 b8 45 72 72 6f 72 	movabs $0x43203a726f727245,%rax
  4029f3:	3a 20 43 
  4029f6:	48 89 45 00          	mov    %rax,0x0(%rbp)
  4029fa:	48 b8 6c 69 65 6e 74 	movabs $0x6e7520746e65696c,%rax
  402a01:	20 75 6e 
  402a04:	48 89 45 08          	mov    %rax,0x8(%rbp)
  402a08:	48 b8 61 62 6c 65 20 	movabs $0x206f7420656c6261,%rax
  402a0f:	74 6f 20 
  402a12:	48 89 45 10          	mov    %rax,0x10(%rbp)
  402a16:	48 b8 63 72 65 61 74 	movabs $0x7320657461657263,%rax
  402a1d:	65 20 73 
  402a20:	48 89 45 18          	mov    %rax,0x18(%rbp)
  402a24:	c7 45 20 6f 63 6b 65 	movl   $0x656b636f,0x20(%rbp)
  402a2b:	66 c7 45 24 74 00    	movw   $0x74,0x24(%rbp)
  402a31:	b8 ff ff ff ff       	mov    $0xffffffff,%eax
  402a36:	eb ab                	jmp    4029e3 <init_driver+0xcb>
  402a38:	48 b8 45 72 72 6f 72 	movabs $0x44203a726f727245,%rax
  402a3f:	3a 20 44 
  402a42:	48 89 45 00          	mov    %rax,0x0(%rbp)
  402a46:	48 b8 4e 53 20 69 73 	movabs $0x6e7520736920534e,%rax
  402a4d:	20 75 6e 
  402a50:	48 89 45 08          	mov    %rax,0x8(%rbp)
  402a54:	48 b8 61 62 6c 65 20 	movabs $0x206f7420656c6261,%rax
  402a5b:	74 6f 20 
  402a5e:	48 89 45 10          	mov    %rax,0x10(%rbp)
  402a62:	48 b8 72 65 73 6f 6c 	movabs $0x2065766c6f736572,%rax
  402a69:	76 65 20 
  402a6c:	48 89 45 18          	mov    %rax,0x18(%rbp)
  402a70:	48 b8 73 65 72 76 65 	movabs $0x6120726576726573,%rax
  402a77:	72 20 61 
  402a7a:	48 89 45 20          	mov    %rax,0x20(%rbp)
  402a7e:	c7 45 28 64 64 72 65 	movl   $0x65726464,0x28(%rbp)
  402a85:	66 c7 45 2c 73 73    	movw   $0x7373,0x2c(%rbp)
  402a8b:	c6 45 2e 00          	movb   $0x0,0x2e(%rbp)
  402a8f:	89 df                	mov    %ebx,%edi
  402a91:	e8 fa e1 ff ff       	callq  400c90 <close@plt>
  402a96:	b8 ff ff ff ff       	mov    $0xffffffff,%eax
  402a9b:	e9 43 ff ff ff       	jmpq   4029e3 <init_driver+0xcb>
  402aa0:	48 b8 45 72 72 6f 72 	movabs $0x55203a726f727245,%rax
  402aa7:	3a 20 55 
  402aaa:	48 89 45 00          	mov    %rax,0x0(%rbp)
  402aae:	48 b8 6e 61 62 6c 65 	movabs $0x6f7420656c62616e,%rax
  402ab5:	20 74 6f 
  402ab8:	48 89 45 08          	mov    %rax,0x8(%rbp)
  402abc:	48 b8 20 63 6f 6e 6e 	movabs $0x7463656e6e6f6320,%rax
  402ac3:	65 63 74 
  402ac6:	48 89 45 10          	mov    %rax,0x10(%rbp)
  402aca:	48 b8 20 74 6f 20 73 	movabs $0x76726573206f7420,%rax
  402ad1:	65 72 76 
  402ad4:	48 89 45 18          	mov    %rax,0x18(%rbp)
  402ad8:	66 c7 45 20 65 72    	movw   $0x7265,0x20(%rbp)
  402ade:	c6 45 22 00          	movb   $0x0,0x22(%rbp)
  402ae2:	89 df                	mov    %ebx,%edi
  402ae4:	e8 a7 e1 ff ff       	callq  400c90 <close@plt>
  402ae9:	b8 ff ff ff ff       	mov    $0xffffffff,%eax
  402aee:	e9 f0 fe ff ff       	jmpq   4029e3 <init_driver+0xcb>

0000000000402af3 <driver_post>:
  402af3:	53                   	push   %rbx
  402af4:	4c 89 cb             	mov    %r9,%rbx
  402af7:	45 85 c0             	test   %r8d,%r8d
  402afa:	75 18                	jne    402b14 <driver_post+0x21>
  402afc:	48 85 ff             	test   %rdi,%rdi
  402aff:	74 05                	je     402b06 <driver_post+0x13>
  402b01:	80 3f 00             	cmpb   $0x0,(%rdi)
  402b04:	75 32                	jne    402b38 <driver_post+0x45>
  402b06:	66 c7 03 4f 4b       	movw   $0x4b4f,(%rbx)
  402b0b:	c6 43 02 00          	movb   $0x0,0x2(%rbx)
  402b0f:	44 89 c0             	mov    %r8d,%eax
  402b12:	5b                   	pop    %rbx
  402b13:	c3                   	retq   
  402b14:	48 89 ce             	mov    %rcx,%rsi
  402b17:	48 8d 3d 77 08 00 00 	lea    0x877(%rip),%rdi        # 403395 <trans_char+0xc5>
  402b1e:	b8 00 00 00 00       	mov    $0x0,%eax
  402b23:	e8 38 e1 ff ff       	callq  400c60 <printf@plt>
  402b28:	66 c7 03 4f 4b       	movw   $0x4b4f,(%rbx)
  402b2d:	c6 43 02 00          	movb   $0x0,0x2(%rbx)
  402b31:	b8 00 00 00 00       	mov    $0x0,%eax
  402b36:	eb da                	jmp    402b12 <driver_post+0x1f>
  402b38:	48 83 ec 08          	sub    $0x8,%rsp
  402b3c:	41 51                	push   %r9
  402b3e:	49 89 c9             	mov    %rcx,%r9
  402b41:	49 89 d0             	mov    %rdx,%r8
  402b44:	48 89 f9             	mov    %rdi,%rcx
  402b47:	48 89 f2             	mov    %rsi,%rdx
  402b4a:	be 9a 3c 00 00       	mov    $0x3c9a,%esi
  402b4f:	48 8d 3d 78 03 00 00 	lea    0x378(%rip),%rdi        # 402ece <_IO_stdin_used+0x28e>
  402b56:	e8 16 f6 ff ff       	callq  402171 <submitr>
  402b5b:	48 83 c4 10          	add    $0x10,%rsp
  402b5f:	eb b1                	jmp    402b12 <driver_post+0x1f>

0000000000402b61 <check>:
  402b61:	89 f8                	mov    %edi,%eax
  402b63:	c1 e8 1c             	shr    $0x1c,%eax
  402b66:	85 c0                	test   %eax,%eax
  402b68:	74 1d                	je     402b87 <check+0x26>
  402b6a:	b9 00 00 00 00       	mov    $0x0,%ecx
  402b6f:	83 f9 1f             	cmp    $0x1f,%ecx
  402b72:	7f 0d                	jg     402b81 <check+0x20>
  402b74:	89 f8                	mov    %edi,%eax
  402b76:	d3 e8                	shr    %cl,%eax
  402b78:	3c 0a                	cmp    $0xa,%al
  402b7a:	74 11                	je     402b8d <check+0x2c>
  402b7c:	83 c1 08             	add    $0x8,%ecx
  402b7f:	eb ee                	jmp    402b6f <check+0xe>
  402b81:	b8 01 00 00 00       	mov    $0x1,%eax
  402b86:	c3                   	retq   
  402b87:	b8 00 00 00 00       	mov    $0x0,%eax
  402b8c:	c3                   	retq   
  402b8d:	b8 00 00 00 00       	mov    $0x0,%eax
  402b92:	c3                   	retq   

0000000000402b93 <gencookie>:
  402b93:	53                   	push   %rbx
  402b94:	83 c7 01             	add    $0x1,%edi
  402b97:	e8 64 e0 ff ff       	callq  400c00 <srandom@plt>
  402b9c:	e8 6f e1 ff ff       	callq  400d10 <random@plt>
  402ba1:	89 c3                	mov    %eax,%ebx
  402ba3:	89 c7                	mov    %eax,%edi
  402ba5:	e8 b7 ff ff ff       	callq  402b61 <check>
  402baa:	85 c0                	test   %eax,%eax
  402bac:	74 ee                	je     402b9c <gencookie+0x9>
  402bae:	89 d8                	mov    %ebx,%eax
  402bb0:	5b                   	pop    %rbx
  402bb1:	c3                   	retq   
  402bb2:	66 2e 0f 1f 84 00 00 	nopw   %cs:0x0(%rax,%rax,1)
  402bb9:	00 00 00 
  402bbc:	0f 1f 40 00          	nopl   0x0(%rax)

0000000000402bc0 <__libc_csu_init>:
  402bc0:	41 57                	push   %r15
  402bc2:	41 56                	push   %r14
  402bc4:	41 89 ff             	mov    %edi,%r15d
  402bc7:	41 55                	push   %r13
  402bc9:	41 54                	push   %r12
  402bcb:	4c 8d 25 36 12 20 00 	lea    0x201236(%rip),%r12        # 603e08 <__frame_dummy_init_array_entry>
  402bd2:	55                   	push   %rbp
  402bd3:	48 8d 2d 36 12 20 00 	lea    0x201236(%rip),%rbp        # 603e10 <__init_array_end>
  402bda:	53                   	push   %rbx
  402bdb:	49 89 f6             	mov    %rsi,%r14
  402bde:	49 89 d5             	mov    %rdx,%r13
  402be1:	4c 29 e5             	sub    %r12,%rbp
  402be4:	48 83 ec 08          	sub    $0x8,%rsp
  402be8:	48 c1 fd 03          	sar    $0x3,%rbp
  402bec:	e8 bf df ff ff       	callq  400bb0 <_init>
  402bf1:	48 85 ed             	test   %rbp,%rbp
  402bf4:	74 20                	je     402c16 <__libc_csu_init+0x56>
  402bf6:	31 db                	xor    %ebx,%ebx
  402bf8:	0f 1f 84 00 00 00 00 	nopl   0x0(%rax,%rax,1)
  402bff:	00 
  402c00:	4c 89 ea             	mov    %r13,%rdx
  402c03:	4c 89 f6             	mov    %r14,%rsi
  402c06:	44 89 ff             	mov    %r15d,%edi
  402c09:	41 ff 14 dc          	callq  *(%r12,%rbx,8)
  402c0d:	48 83 c3 01          	add    $0x1,%rbx
  402c11:	48 39 dd             	cmp    %rbx,%rbp
  402c14:	75 ea                	jne    402c00 <__libc_csu_init+0x40>
  402c16:	48 83 c4 08          	add    $0x8,%rsp
  402c1a:	5b                   	pop    %rbx
  402c1b:	5d                   	pop    %rbp
  402c1c:	41 5c                	pop    %r12
  402c1e:	41 5d                	pop    %r13
  402c20:	41 5e                	pop    %r14
  402c22:	41 5f                	pop    %r15
  402c24:	c3                   	retq   
  402c25:	90                   	nop
  402c26:	66 2e 0f 1f 84 00 00 	nopw   %cs:0x0(%rax,%rax,1)
  402c2d:	00 00 00 

0000000000402c30 <__libc_csu_fini>:
  402c30:	f3 c3                	repz retq 

Disassembly of section .fini:

0000000000402c34 <_fini>:
  402c34:	48 83 ec 08          	sub    $0x8,%rsp
  402c38:	48 83 c4 08          	add    $0x8,%rsp
  402c3c:	c3                   	retq   
