
bomb:     file format elf64-x86-64


Disassembly of section .init:

0000000000400c10 <_init>:
  400c10:	48 83 ec 08          	sub    $0x8,%rsp
  400c14:	48 8b 05 dd 23 20 00 	mov    0x2023dd(%rip),%rax        # 602ff8 <_DYNAMIC+0x1d8>
  400c1b:	48 85 c0             	test   %rax,%rax
  400c1e:	74 02                	je     400c22 <_init+0x12>
  400c20:	ff d0                	callq  *%rax
  400c22:	48 83 c4 08          	add    $0x8,%rsp
  400c26:	c3                   	retq   

Disassembly of section .plt:

0000000000400c30 <getenv@plt-0x10>:
  400c30:	ff 35 d2 23 20 00    	pushq  0x2023d2(%rip)        # 603008 <_GLOBAL_OFFSET_TABLE_+0x8>
  400c36:	ff 25 d4 23 20 00    	jmpq   *0x2023d4(%rip)        # 603010 <_GLOBAL_OFFSET_TABLE_+0x10>
  400c3c:	0f 1f 40 00          	nopl   0x0(%rax)

0000000000400c40 <getenv@plt>:
  400c40:	ff 25 d2 23 20 00    	jmpq   *0x2023d2(%rip)        # 603018 <_GLOBAL_OFFSET_TABLE_+0x18>
  400c46:	68 00 00 00 00       	pushq  $0x0
  400c4b:	e9 e0 ff ff ff       	jmpq   400c30 <_init+0x20>

0000000000400c50 <__errno_location@plt>:
  400c50:	ff 25 ca 23 20 00    	jmpq   *0x2023ca(%rip)        # 603020 <_GLOBAL_OFFSET_TABLE_+0x20>
  400c56:	68 01 00 00 00       	pushq  $0x1
  400c5b:	e9 d0 ff ff ff       	jmpq   400c30 <_init+0x20>

0000000000400c60 <strcpy@plt>:
  400c60:	ff 25 c2 23 20 00    	jmpq   *0x2023c2(%rip)        # 603028 <_GLOBAL_OFFSET_TABLE_+0x28>
  400c66:	68 02 00 00 00       	pushq  $0x2
  400c6b:	e9 c0 ff ff ff       	jmpq   400c30 <_init+0x20>

0000000000400c70 <puts@plt>:
  400c70:	ff 25 ba 23 20 00    	jmpq   *0x2023ba(%rip)        # 603030 <_GLOBAL_OFFSET_TABLE_+0x30>
  400c76:	68 03 00 00 00       	pushq  $0x3
  400c7b:	e9 b0 ff ff ff       	jmpq   400c30 <_init+0x20>

0000000000400c80 <write@plt>:
  400c80:	ff 25 b2 23 20 00    	jmpq   *0x2023b2(%rip)        # 603038 <_GLOBAL_OFFSET_TABLE_+0x38>
  400c86:	68 04 00 00 00       	pushq  $0x4
  400c8b:	e9 a0 ff ff ff       	jmpq   400c30 <_init+0x20>

0000000000400c90 <fclose@plt>:
  400c90:	ff 25 aa 23 20 00    	jmpq   *0x2023aa(%rip)        # 603040 <_GLOBAL_OFFSET_TABLE_+0x40>
  400c96:	68 05 00 00 00       	pushq  $0x5
  400c9b:	e9 90 ff ff ff       	jmpq   400c30 <_init+0x20>

0000000000400ca0 <strlen@plt>:
  400ca0:	ff 25 a2 23 20 00    	jmpq   *0x2023a2(%rip)        # 603048 <_GLOBAL_OFFSET_TABLE_+0x48>
  400ca6:	68 06 00 00 00       	pushq  $0x6
  400cab:	e9 80 ff ff ff       	jmpq   400c30 <_init+0x20>

0000000000400cb0 <system@plt>:
  400cb0:	ff 25 9a 23 20 00    	jmpq   *0x20239a(%rip)        # 603050 <_GLOBAL_OFFSET_TABLE_+0x50>
  400cb6:	68 07 00 00 00       	pushq  $0x7
  400cbb:	e9 70 ff ff ff       	jmpq   400c30 <_init+0x20>

0000000000400cc0 <htons@plt>:
  400cc0:	ff 25 92 23 20 00    	jmpq   *0x202392(%rip)        # 603058 <_GLOBAL_OFFSET_TABLE_+0x58>
  400cc6:	68 08 00 00 00       	pushq  $0x8
  400ccb:	e9 60 ff ff ff       	jmpq   400c30 <_init+0x20>

0000000000400cd0 <printf@plt>:
  400cd0:	ff 25 8a 23 20 00    	jmpq   *0x20238a(%rip)        # 603060 <_GLOBAL_OFFSET_TABLE_+0x60>
  400cd6:	68 09 00 00 00       	pushq  $0x9
  400cdb:	e9 50 ff ff ff       	jmpq   400c30 <_init+0x20>

0000000000400ce0 <rewind@plt>:
  400ce0:	ff 25 82 23 20 00    	jmpq   *0x202382(%rip)        # 603068 <_GLOBAL_OFFSET_TABLE_+0x68>
  400ce6:	68 0a 00 00 00       	pushq  $0xa
  400ceb:	e9 40 ff ff ff       	jmpq   400c30 <_init+0x20>

0000000000400cf0 <dup@plt>:
  400cf0:	ff 25 7a 23 20 00    	jmpq   *0x20237a(%rip)        # 603070 <_GLOBAL_OFFSET_TABLE_+0x70>
  400cf6:	68 0b 00 00 00       	pushq  $0xb
  400cfb:	e9 30 ff ff ff       	jmpq   400c30 <_init+0x20>

0000000000400d00 <close@plt>:
  400d00:	ff 25 72 23 20 00    	jmpq   *0x202372(%rip)        # 603078 <_GLOBAL_OFFSET_TABLE_+0x78>
  400d06:	68 0c 00 00 00       	pushq  $0xc
  400d0b:	e9 20 ff ff ff       	jmpq   400c30 <_init+0x20>

0000000000400d10 <fputc@plt>:
  400d10:	ff 25 6a 23 20 00    	jmpq   *0x20236a(%rip)        # 603080 <_GLOBAL_OFFSET_TABLE_+0x80>
  400d16:	68 0d 00 00 00       	pushq  $0xd
  400d1b:	e9 10 ff ff ff       	jmpq   400c30 <_init+0x20>

0000000000400d20 <fgets@plt>:
  400d20:	ff 25 62 23 20 00    	jmpq   *0x202362(%rip)        # 603088 <_GLOBAL_OFFSET_TABLE_+0x88>
  400d26:	68 0e 00 00 00       	pushq  $0xe
  400d2b:	e9 00 ff ff ff       	jmpq   400c30 <_init+0x20>

0000000000400d30 <tmpfile@plt>:
  400d30:	ff 25 5a 23 20 00    	jmpq   *0x20235a(%rip)        # 603090 <_GLOBAL_OFFSET_TABLE_+0x90>
  400d36:	68 0f 00 00 00       	pushq  $0xf
  400d3b:	e9 f0 fe ff ff       	jmpq   400c30 <_init+0x20>

0000000000400d40 <signal@plt>:
  400d40:	ff 25 52 23 20 00    	jmpq   *0x202352(%rip)        # 603098 <_GLOBAL_OFFSET_TABLE_+0x98>
  400d46:	68 10 00 00 00       	pushq  $0x10
  400d4b:	e9 e0 fe ff ff       	jmpq   400c30 <_init+0x20>

0000000000400d50 <gethostbyname@plt>:
  400d50:	ff 25 4a 23 20 00    	jmpq   *0x20234a(%rip)        # 6030a0 <_GLOBAL_OFFSET_TABLE_+0xa0>
  400d56:	68 11 00 00 00       	pushq  $0x11
  400d5b:	e9 d0 fe ff ff       	jmpq   400c30 <_init+0x20>

0000000000400d60 <fprintf@plt>:
  400d60:	ff 25 42 23 20 00    	jmpq   *0x202342(%rip)        # 6030a8 <_GLOBAL_OFFSET_TABLE_+0xa8>
  400d66:	68 12 00 00 00       	pushq  $0x12
  400d6b:	e9 c0 fe ff ff       	jmpq   400c30 <_init+0x20>

0000000000400d70 <inet_pton@plt>:
  400d70:	ff 25 3a 23 20 00    	jmpq   *0x20233a(%rip)        # 6030b0 <_GLOBAL_OFFSET_TABLE_+0xb0>
  400d76:	68 13 00 00 00       	pushq  $0x13
  400d7b:	e9 b0 fe ff ff       	jmpq   400c30 <_init+0x20>

0000000000400d80 <fflush@plt>:
  400d80:	ff 25 32 23 20 00    	jmpq   *0x202332(%rip)        # 6030b8 <_GLOBAL_OFFSET_TABLE_+0xb8>
  400d86:	68 14 00 00 00       	pushq  $0x14
  400d8b:	e9 a0 fe ff ff       	jmpq   400c30 <_init+0x20>

0000000000400d90 <__isoc99_sscanf@plt>:
  400d90:	ff 25 2a 23 20 00    	jmpq   *0x20232a(%rip)        # 6030c0 <_GLOBAL_OFFSET_TABLE_+0xc0>
  400d96:	68 15 00 00 00       	pushq  $0x15
  400d9b:	e9 90 fe ff ff       	jmpq   400c30 <_init+0x20>

0000000000400da0 <bcopy@plt>:
  400da0:	ff 25 22 23 20 00    	jmpq   *0x202322(%rip)        # 6030c8 <_GLOBAL_OFFSET_TABLE_+0xc8>
  400da6:	68 16 00 00 00       	pushq  $0x16
  400dab:	e9 80 fe ff ff       	jmpq   400c30 <_init+0x20>

0000000000400db0 <cuserid@plt>:
  400db0:	ff 25 1a 23 20 00    	jmpq   *0x20231a(%rip)        # 6030d0 <_GLOBAL_OFFSET_TABLE_+0xd0>
  400db6:	68 17 00 00 00       	pushq  $0x17
  400dbb:	e9 70 fe ff ff       	jmpq   400c30 <_init+0x20>

0000000000400dc0 <fopen@plt>:
  400dc0:	ff 25 12 23 20 00    	jmpq   *0x202312(%rip)        # 6030d8 <_GLOBAL_OFFSET_TABLE_+0xd8>
  400dc6:	68 18 00 00 00       	pushq  $0x18
  400dcb:	e9 60 fe ff ff       	jmpq   400c30 <_init+0x20>

0000000000400dd0 <bzero@plt>:
  400dd0:	ff 25 0a 23 20 00    	jmpq   *0x20230a(%rip)        # 6030e0 <_GLOBAL_OFFSET_TABLE_+0xe0>
  400dd6:	68 19 00 00 00       	pushq  $0x19
  400ddb:	e9 50 fe ff ff       	jmpq   400c30 <_init+0x20>

0000000000400de0 <atoi@plt>:
  400de0:	ff 25 02 23 20 00    	jmpq   *0x202302(%rip)        # 6030e8 <_GLOBAL_OFFSET_TABLE_+0xe8>
  400de6:	68 1a 00 00 00       	pushq  $0x1a
  400deb:	e9 40 fe ff ff       	jmpq   400c30 <_init+0x20>

0000000000400df0 <strcat@plt>:
  400df0:	ff 25 fa 22 20 00    	jmpq   *0x2022fa(%rip)        # 6030f0 <_GLOBAL_OFFSET_TABLE_+0xf0>
  400df6:	68 1b 00 00 00       	pushq  $0x1b
  400dfb:	e9 30 fe ff ff       	jmpq   400c30 <_init+0x20>

0000000000400e00 <sprintf@plt>:
  400e00:	ff 25 f2 22 20 00    	jmpq   *0x2022f2(%rip)        # 6030f8 <_GLOBAL_OFFSET_TABLE_+0xf8>
  400e06:	68 1c 00 00 00       	pushq  $0x1c
  400e0b:	e9 20 fe ff ff       	jmpq   400c30 <_init+0x20>

0000000000400e10 <exit@plt>:
  400e10:	ff 25 ea 22 20 00    	jmpq   *0x2022ea(%rip)        # 603100 <_GLOBAL_OFFSET_TABLE_+0x100>
  400e16:	68 1d 00 00 00       	pushq  $0x1d
  400e1b:	e9 10 fe ff ff       	jmpq   400c30 <_init+0x20>

0000000000400e20 <connect@plt>:
  400e20:	ff 25 e2 22 20 00    	jmpq   *0x2022e2(%rip)        # 603108 <_GLOBAL_OFFSET_TABLE_+0x108>
  400e26:	68 1e 00 00 00       	pushq  $0x1e
  400e2b:	e9 00 fe ff ff       	jmpq   400c30 <_init+0x20>

0000000000400e30 <fwrite@plt>:
  400e30:	ff 25 da 22 20 00    	jmpq   *0x2022da(%rip)        # 603110 <_GLOBAL_OFFSET_TABLE_+0x110>
  400e36:	68 1f 00 00 00       	pushq  $0x1f
  400e3b:	e9 f0 fd ff ff       	jmpq   400c30 <_init+0x20>

0000000000400e40 <sleep@plt>:
  400e40:	ff 25 d2 22 20 00    	jmpq   *0x2022d2(%rip)        # 603118 <_GLOBAL_OFFSET_TABLE_+0x118>
  400e46:	68 20 00 00 00       	pushq  $0x20
  400e4b:	e9 e0 fd ff ff       	jmpq   400c30 <_init+0x20>

0000000000400e50 <__ctype_b_loc@plt>:
  400e50:	ff 25 ca 22 20 00    	jmpq   *0x2022ca(%rip)        # 603120 <_GLOBAL_OFFSET_TABLE_+0x120>
  400e56:	68 21 00 00 00       	pushq  $0x21
  400e5b:	e9 d0 fd ff ff       	jmpq   400c30 <_init+0x20>

0000000000400e60 <socket@plt>:
  400e60:	ff 25 c2 22 20 00    	jmpq   *0x2022c2(%rip)        # 603128 <_GLOBAL_OFFSET_TABLE_+0x128>
  400e66:	68 22 00 00 00       	pushq  $0x22
  400e6b:	e9 c0 fd ff ff       	jmpq   400c30 <_init+0x20>

Disassembly of section .text:

0000000000400e70 <_start>:
  400e70:	31 ed                	xor    %ebp,%ebp
  400e72:	49 89 d1             	mov    %rdx,%r9
  400e75:	5e                   	pop    %rsi
  400e76:	48 89 e2             	mov    %rsp,%rdx
  400e79:	48 83 e4 f0          	and    $0xfffffffffffffff0,%rsp
  400e7d:	50                   	push   %rax
  400e7e:	54                   	push   %rsp
  400e7f:	49 c7 c0 f0 22 40 00 	mov    $0x4022f0,%r8
  400e86:	48 c7 c1 80 22 40 00 	mov    $0x402280,%rcx
  400e8d:	48 c7 c7 66 0f 40 00 	mov    $0x400f66,%rdi
  400e94:	ff 15 56 21 20 00    	callq  *0x202156(%rip)        # 602ff0 <_DYNAMIC+0x1d0>
  400e9a:	f4                   	hlt    
  400e9b:	0f 1f 44 00 00       	nopl   0x0(%rax,%rax,1)

0000000000400ea0 <deregister_tm_clones>:
  400ea0:	b8 0f 38 60 00       	mov    $0x60380f,%eax
  400ea5:	55                   	push   %rbp
  400ea6:	48 2d 08 38 60 00    	sub    $0x603808,%rax
  400eac:	48 83 f8 0e          	cmp    $0xe,%rax
  400eb0:	48 89 e5             	mov    %rsp,%rbp
  400eb3:	76 1b                	jbe    400ed0 <deregister_tm_clones+0x30>
  400eb5:	b8 00 00 00 00       	mov    $0x0,%eax
  400eba:	48 85 c0             	test   %rax,%rax
  400ebd:	74 11                	je     400ed0 <deregister_tm_clones+0x30>
  400ebf:	5d                   	pop    %rbp
  400ec0:	bf 08 38 60 00       	mov    $0x603808,%edi
  400ec5:	ff e0                	jmpq   *%rax
  400ec7:	66 0f 1f 84 00 00 00 	nopw   0x0(%rax,%rax,1)
  400ece:	00 00 
  400ed0:	5d                   	pop    %rbp
  400ed1:	c3                   	retq   
  400ed2:	0f 1f 40 00          	nopl   0x0(%rax)
  400ed6:	66 2e 0f 1f 84 00 00 	nopw   %cs:0x0(%rax,%rax,1)
  400edd:	00 00 00 

0000000000400ee0 <register_tm_clones>:
  400ee0:	be 08 38 60 00       	mov    $0x603808,%esi
  400ee5:	55                   	push   %rbp
  400ee6:	48 81 ee 08 38 60 00 	sub    $0x603808,%rsi
  400eed:	48 c1 fe 03          	sar    $0x3,%rsi
  400ef1:	48 89 e5             	mov    %rsp,%rbp
  400ef4:	48 89 f0             	mov    %rsi,%rax
  400ef7:	48 c1 e8 3f          	shr    $0x3f,%rax
  400efb:	48 01 c6             	add    %rax,%rsi
  400efe:	48 d1 fe             	sar    %rsi
  400f01:	74 15                	je     400f18 <register_tm_clones+0x38>
  400f03:	b8 00 00 00 00       	mov    $0x0,%eax
  400f08:	48 85 c0             	test   %rax,%rax
  400f0b:	74 0b                	je     400f18 <register_tm_clones+0x38>
  400f0d:	5d                   	pop    %rbp
  400f0e:	bf 08 38 60 00       	mov    $0x603808,%edi
  400f13:	ff e0                	jmpq   *%rax
  400f15:	0f 1f 00             	nopl   (%rax)
  400f18:	5d                   	pop    %rbp
  400f19:	c3                   	retq   
  400f1a:	66 0f 1f 44 00 00    	nopw   0x0(%rax,%rax,1)

0000000000400f20 <__do_global_dtors_aux>:
  400f20:	80 3d 11 29 20 00 00 	cmpb   $0x0,0x202911(%rip)        # 603838 <completed.6963>
  400f27:	75 11                	jne    400f3a <__do_global_dtors_aux+0x1a>
  400f29:	55                   	push   %rbp
  400f2a:	48 89 e5             	mov    %rsp,%rbp
  400f2d:	e8 6e ff ff ff       	callq  400ea0 <deregister_tm_clones>
  400f32:	5d                   	pop    %rbp
  400f33:	c6 05 fe 28 20 00 01 	movb   $0x1,0x2028fe(%rip)        # 603838 <completed.6963>
  400f3a:	f3 c3                	repz retq 
  400f3c:	0f 1f 40 00          	nopl   0x0(%rax)

0000000000400f40 <frame_dummy>:
  400f40:	bf 18 2e 60 00       	mov    $0x602e18,%edi
  400f45:	48 83 3f 00          	cmpq   $0x0,(%rdi)
  400f49:	75 05                	jne    400f50 <frame_dummy+0x10>
  400f4b:	eb 93                	jmp    400ee0 <register_tm_clones>
  400f4d:	0f 1f 00             	nopl   (%rax)
  400f50:	b8 00 00 00 00       	mov    $0x0,%eax
  400f55:	48 85 c0             	test   %rax,%rax
  400f58:	74 f1                	je     400f4b <frame_dummy+0xb>
  400f5a:	55                   	push   %rbp
  400f5b:	48 89 e5             	mov    %rsp,%rbp
  400f5e:	ff d0                	callq  *%rax
  400f60:	5d                   	pop    %rbp
  400f61:	e9 7a ff ff ff       	jmpq   400ee0 <register_tm_clones>

0000000000400f66 <main>:
  400f66:	55                   	push   %rbp
  400f67:	48 89 e5             	mov    %rsp,%rbp
  400f6a:	48 83 ec 20          	sub    $0x20,%rsp
  400f6e:	89 7d ec             	mov    %edi,-0x14(%rbp)
  400f71:	48 89 75 e0          	mov    %rsi,-0x20(%rbp)
  400f75:	83 7d ec 01          	cmpl   $0x1,-0x14(%rbp)
  400f79:	75 13                	jne    400f8e <main+0x28>
  400f7b:	48 8b 05 ae 28 20 00 	mov    0x2028ae(%rip),%rax        # 603830 <stdin@@GLIBC_2.2.5>
  400f82:	48 89 05 b7 28 20 00 	mov    %rax,0x2028b7(%rip)        # 603840 <infile>
  400f89:	e9 88 00 00 00       	jmpq   401016 <main+0xb0>
  400f8e:	83 7d ec 02          	cmpl   $0x2,-0x14(%rbp)
  400f92:	75 5d                	jne    400ff1 <main+0x8b>
  400f94:	48 8b 45 e0          	mov    -0x20(%rbp),%rax
  400f98:	48 83 c0 08          	add    $0x8,%rax
  400f9c:	48 8b 00             	mov    (%rax),%rax
  400f9f:	48 8d 35 62 13 00 00 	lea    0x1362(%rip),%rsi        # 402308 <_IO_stdin_used+0x8>
  400fa6:	48 89 c7             	mov    %rax,%rdi
  400fa9:	e8 12 fe ff ff       	callq  400dc0 <fopen@plt>
  400fae:	48 89 05 8b 28 20 00 	mov    %rax,0x20288b(%rip)        # 603840 <infile>
  400fb5:	48 8b 05 84 28 20 00 	mov    0x202884(%rip),%rax        # 603840 <infile>
  400fbc:	48 85 c0             	test   %rax,%rax
  400fbf:	75 55                	jne    401016 <main+0xb0>
  400fc1:	48 8b 45 e0          	mov    -0x20(%rbp),%rax
  400fc5:	48 83 c0 08          	add    $0x8,%rax
  400fc9:	48 8b 10             	mov    (%rax),%rdx
  400fcc:	48 8b 45 e0          	mov    -0x20(%rbp),%rax
  400fd0:	48 8b 00             	mov    (%rax),%rax
  400fd3:	48 89 c6             	mov    %rax,%rsi
  400fd6:	48 8d 3d 2d 13 00 00 	lea    0x132d(%rip),%rdi        # 40230a <_IO_stdin_used+0xa>
  400fdd:	b8 00 00 00 00       	mov    $0x0,%eax
  400fe2:	e8 e9 fc ff ff       	callq  400cd0 <printf@plt>
  400fe7:	bf 08 00 00 00       	mov    $0x8,%edi
  400fec:	e8 1f fe ff ff       	callq  400e10 <exit@plt>
  400ff1:	48 8b 45 e0          	mov    -0x20(%rbp),%rax
  400ff5:	48 8b 00             	mov    (%rax),%rax
  400ff8:	48 89 c6             	mov    %rax,%rsi
  400ffb:	48 8d 3d 25 13 00 00 	lea    0x1325(%rip),%rdi        # 402327 <_IO_stdin_used+0x27>
  401002:	b8 00 00 00 00       	mov    $0x0,%eax
  401007:	e8 c4 fc ff ff       	callq  400cd0 <printf@plt>
  40100c:	bf 08 00 00 00       	mov    $0x8,%edi
  401011:	e8 fa fd ff ff       	callq  400e10 <exit@plt>
  401016:	e8 b6 08 00 00       	callq  4018d1 <initialize_bomb>
  40101b:	48 8d 3d 26 13 00 00 	lea    0x1326(%rip),%rdi        # 402348 <_IO_stdin_used+0x48>
  401022:	e8 49 fc ff ff       	callq  400c70 <puts@plt>
  401027:	48 8d 3d 5a 13 00 00 	lea    0x135a(%rip),%rdi        # 402388 <_IO_stdin_used+0x88>
  40102e:	e8 3d fc ff ff       	callq  400c70 <puts@plt>
  401033:	e8 81 09 00 00       	callq  4019b9 <read_line>
  401038:	48 89 45 f8          	mov    %rax,-0x8(%rbp)
  40103c:	48 8b 45 f8          	mov    -0x8(%rbp),%rax
  401040:	48 89 c7             	mov    %rax,%rdi
  401043:	e8 ca 00 00 00       	callq  401112 <phase_1>
  401048:	e8 83 11 00 00       	callq  4021d0 <phase_defused>
  40104d:	48 8d 3d 64 13 00 00 	lea    0x1364(%rip),%rdi        # 4023b8 <_IO_stdin_used+0xb8>
  401054:	e8 17 fc ff ff       	callq  400c70 <puts@plt>
  401059:	e8 5b 09 00 00       	callq  4019b9 <read_line>
  40105e:	48 89 45 f8          	mov    %rax,-0x8(%rbp)
  401062:	48 8b 45 f8          	mov    -0x8(%rbp),%rax
  401066:	48 89 c7             	mov    %rax,%rdi
  401069:	e8 cf 00 00 00       	callq  40113d <phase_2>
  40106e:	e8 5d 11 00 00       	callq  4021d0 <phase_defused>
  401073:	48 8d 3d 67 13 00 00 	lea    0x1367(%rip),%rdi        # 4023e1 <_IO_stdin_used+0xe1>
  40107a:	e8 f1 fb ff ff       	callq  400c70 <puts@plt>
  40107f:	e8 35 09 00 00       	callq  4019b9 <read_line>
  401084:	48 89 45 f8          	mov    %rax,-0x8(%rbp)
  401088:	48 8b 45 f8          	mov    -0x8(%rbp),%rax
  40108c:	48 89 c7             	mov    %rax,%rdi
  40108f:	e8 1a 01 00 00       	callq  4011ae <phase_3>
  401094:	e8 37 11 00 00       	callq  4021d0 <phase_defused>
  401099:	48 8d 3d 5f 13 00 00 	lea    0x135f(%rip),%rdi        # 4023ff <_IO_stdin_used+0xff>
  4010a0:	e8 cb fb ff ff       	callq  400c70 <puts@plt>
  4010a5:	e8 0f 09 00 00       	callq  4019b9 <read_line>
  4010aa:	48 89 45 f8          	mov    %rax,-0x8(%rbp)
  4010ae:	48 8b 45 f8          	mov    -0x8(%rbp),%rax
  4010b2:	48 89 c7             	mov    %rax,%rdi
  4010b5:	e8 81 02 00 00       	callq  40133b <phase_4>
  4010ba:	e8 11 11 00 00       	callq  4021d0 <phase_defused>
  4010bf:	48 8d 3d 4a 13 00 00 	lea    0x134a(%rip),%rdi        # 402410 <_IO_stdin_used+0x110>
  4010c6:	e8 a5 fb ff ff       	callq  400c70 <puts@plt>
  4010cb:	e8 e9 08 00 00       	callq  4019b9 <read_line>
  4010d0:	48 89 45 f8          	mov    %rax,-0x8(%rbp)
  4010d4:	48 8b 45 f8          	mov    -0x8(%rbp),%rax
  4010d8:	48 89 c7             	mov    %rax,%rdi
  4010db:	e8 b6 02 00 00       	callq  401396 <phase_5>
  4010e0:	e8 eb 10 00 00       	callq  4021d0 <phase_defused>
  4010e5:	48 8d 3d 48 13 00 00 	lea    0x1348(%rip),%rdi        # 402434 <_IO_stdin_used+0x134>
  4010ec:	e8 7f fb ff ff       	callq  400c70 <puts@plt>
  4010f1:	e8 c3 08 00 00       	callq  4019b9 <read_line>
  4010f6:	48 89 45 f8          	mov    %rax,-0x8(%rbp)
  4010fa:	48 8b 45 f8          	mov    -0x8(%rbp),%rax
  4010fe:	48 89 c7             	mov    %rax,%rdi
  401101:	e8 d9 03 00 00       	callq  4014df <phase_6>
  401106:	e8 c5 10 00 00       	callq  4021d0 <phase_defused>
  40110b:	b8 00 00 00 00       	mov    $0x0,%eax
  401110:	c9                   	leaveq 
  401111:	c3                   	retq   

0000000000401112 <phase_1>:
  401112:	55                   	push   %rbp
  401113:	48 89 e5             	mov    %rsp,%rbp
  401116:	48 83 ec 10          	sub    $0x10,%rsp
  40111a:	48 89 7d f8          	mov    %rdi,-0x8(%rbp)
  40111e:	48 8b 45 f8          	mov    -0x8(%rbp),%rax
  401122:	48 8d 35 2f 13 00 00 	lea    0x132f(%rip),%rsi        # 402458 <_IO_stdin_used+0x158>
  401129:	48 89 c7             	mov    %rax,%rdi
  40112c:	e8 2a 06 00 00       	callq  40175b <strings_not_equal>
  401131:	85 c0                	test   %eax,%eax
  401133:	74 05                	je     40113a <phase_1+0x28>
  401135:	e8 5a 10 00 00       	callq  402194 <explode_bomb>
  40113a:	90                   	nop
  40113b:	c9                   	leaveq 
  40113c:	c3                   	retq   

000000000040113d <phase_2>:
  40113d:	55                   	push   %rbp
  40113e:	48 89 e5             	mov    %rsp,%rbp
  401141:	48 83 ec 30          	sub    $0x30,%rsp
  401145:	48 89 7d d8          	mov    %rdi,-0x28(%rbp)
  401149:	c7 45 f8 00 00 00 00 	movl   $0x0,-0x8(%rbp)
  401150:	48 8d 55 e0          	lea    -0x20(%rbp),%rdx
  401154:	48 8b 45 d8          	mov    -0x28(%rbp),%rax
  401158:	48 89 d6             	mov    %rdx,%rsi
  40115b:	48 89 c7             	mov    %rax,%rdi
  40115e:	e8 5b 05 00 00       	callq  4016be <read_six_numbers>
  401163:	c7 45 fc 00 00 00 00 	movl   $0x0,-0x4(%rbp)
  40116a:	eb 2e                	jmp    40119a <phase_2+0x5d>
  40116c:	8b 45 fc             	mov    -0x4(%rbp),%eax
  40116f:	48 98                	cltq   
  401171:	8b 54 85 e0          	mov    -0x20(%rbp,%rax,4),%edx
  401175:	8b 45 fc             	mov    -0x4(%rbp),%eax
  401178:	83 c0 03             	add    $0x3,%eax
  40117b:	48 98                	cltq   
  40117d:	8b 44 85 e0          	mov    -0x20(%rbp,%rax,4),%eax
  401181:	39 c2                	cmp    %eax,%edx
  401183:	74 05                	je     40118a <phase_2+0x4d>
  401185:	e8 0a 10 00 00       	callq  402194 <explode_bomb>
  40118a:	8b 45 fc             	mov    -0x4(%rbp),%eax
  40118d:	48 98                	cltq   
  40118f:	8b 44 85 e0          	mov    -0x20(%rbp,%rax,4),%eax
  401193:	01 45 f8             	add    %eax,-0x8(%rbp)
  401196:	83 45 fc 01          	addl   $0x1,-0x4(%rbp)
  40119a:	83 7d fc 02          	cmpl   $0x2,-0x4(%rbp)
  40119e:	7e cc                	jle    40116c <phase_2+0x2f>
  4011a0:	83 7d f8 00          	cmpl   $0x0,-0x8(%rbp)
  4011a4:	75 05                	jne    4011ab <phase_2+0x6e>
  4011a6:	e8 e9 0f 00 00       	callq  402194 <explode_bomb>
  4011ab:	90                   	nop
  4011ac:	c9                   	leaveq 
  4011ad:	c3                   	retq   

00000000004011ae <phase_3>:
  4011ae:	55                   	push   %rbp
  4011af:	48 89 e5             	mov    %rsp,%rbp
  4011b2:	48 83 ec 30          	sub    $0x30,%rsp
  4011b6:	48 89 7d d8          	mov    %rdi,-0x28(%rbp)
  4011ba:	c7 45 f8 00 00 00 00 	movl   $0x0,-0x8(%rbp)
  4011c1:	48 8d 75 f0          	lea    -0x10(%rbp),%rsi
  4011c5:	48 8d 4d ef          	lea    -0x11(%rbp),%rcx
  4011c9:	48 8d 55 f4          	lea    -0xc(%rbp),%rdx
  4011cd:	48 8b 45 d8          	mov    -0x28(%rbp),%rax
  4011d1:	49 89 f0             	mov    %rsi,%r8
  4011d4:	48 8d 35 bb 12 00 00 	lea    0x12bb(%rip),%rsi        # 402496 <_IO_stdin_used+0x196>
  4011db:	48 89 c7             	mov    %rax,%rdi
  4011de:	b8 00 00 00 00       	mov    $0x0,%eax
  4011e3:	e8 a8 fb ff ff       	callq  400d90 <__isoc99_sscanf@plt>
  4011e8:	89 45 f8             	mov    %eax,-0x8(%rbp)
  4011eb:	83 7d f8 02          	cmpl   $0x2,-0x8(%rbp)
  4011ef:	7f 05                	jg     4011f6 <phase_3+0x48>
  4011f1:	e8 9e 0f 00 00       	callq  402194 <explode_bomb>
  4011f6:	8b 45 f4             	mov    -0xc(%rbp),%eax
  4011f9:	83 f8 07             	cmp    $0x7,%eax
  4011fc:	0f 87 d7 00 00 00    	ja     4012d9 <phase_3+0x12b>
  401202:	89 c0                	mov    %eax,%eax
  401204:	48 8d 14 85 00 00 00 	lea    0x0(,%rax,4),%rdx
  40120b:	00 
  40120c:	48 8d 05 8d 12 00 00 	lea    0x128d(%rip),%rax        # 4024a0 <_IO_stdin_used+0x1a0>
  401213:	8b 04 02             	mov    (%rdx,%rax,1),%eax
  401216:	48 63 d0             	movslq %eax,%rdx
  401219:	48 8d 05 80 12 00 00 	lea    0x1280(%rip),%rax        # 4024a0 <_IO_stdin_used+0x1a0>
  401220:	48 01 d0             	add    %rdx,%rax
  401223:	ff e0                	jmpq   *%rax
  401225:	c6 45 ff 68          	movb   $0x68,-0x1(%rbp)
  401229:	8b 45 f0             	mov    -0x10(%rbp),%eax
  40122c:	3d ac 00 00 00       	cmp    $0xac,%eax
  401231:	0f 84 ad 00 00 00    	je     4012e4 <phase_3+0x136>
  401237:	e8 58 0f 00 00       	callq  402194 <explode_bomb>
  40123c:	e9 a3 00 00 00       	jmpq   4012e4 <phase_3+0x136>
  401241:	c6 45 ff 68          	movb   $0x68,-0x1(%rbp)
  401245:	8b 45 f0             	mov    -0x10(%rbp),%eax
  401248:	3d c1 01 00 00       	cmp    $0x1c1,%eax
  40124d:	0f 84 94 00 00 00    	je     4012e7 <phase_3+0x139>
  401253:	e8 3c 0f 00 00       	callq  402194 <explode_bomb>
  401258:	e9 8a 00 00 00       	jmpq   4012e7 <phase_3+0x139>
  40125d:	c6 45 ff 61          	movb   $0x61,-0x1(%rbp)
  401261:	8b 45 f0             	mov    -0x10(%rbp),%eax
  401264:	3d 4f 01 00 00       	cmp    $0x14f,%eax
  401269:	74 7f                	je     4012ea <phase_3+0x13c>
  40126b:	e8 24 0f 00 00       	callq  402194 <explode_bomb>
  401270:	eb 78                	jmp    4012ea <phase_3+0x13c>
  401272:	c6 45 ff 7a          	movb   $0x7a,-0x1(%rbp)
  401276:	8b 45 f0             	mov    -0x10(%rbp),%eax
  401279:	3d cb 03 00 00       	cmp    $0x3cb,%eax
  40127e:	74 6d                	je     4012ed <phase_3+0x13f>
  401280:	e8 0f 0f 00 00       	callq  402194 <explode_bomb>
  401285:	eb 66                	jmp    4012ed <phase_3+0x13f>
  401287:	c6 45 ff 6a          	movb   $0x6a,-0x1(%rbp)
  40128b:	8b 45 f0             	mov    -0x10(%rbp),%eax
  40128e:	3d 35 03 00 00       	cmp    $0x335,%eax
  401293:	74 5b                	je     4012f0 <phase_3+0x142>
  401295:	e8 fa 0e 00 00       	callq  402194 <explode_bomb>
  40129a:	eb 54                	jmp    4012f0 <phase_3+0x142>
  40129c:	c6 45 ff 7a          	movb   $0x7a,-0x1(%rbp)
  4012a0:	8b 45 f0             	mov    -0x10(%rbp),%eax
  4012a3:	3d 60 01 00 00       	cmp    $0x160,%eax
  4012a8:	74 49                	je     4012f3 <phase_3+0x145>
  4012aa:	e8 e5 0e 00 00       	callq  402194 <explode_bomb>
  4012af:	eb 42                	jmp    4012f3 <phase_3+0x145>
  4012b1:	c6 45 ff 6e          	movb   $0x6e,-0x1(%rbp)
  4012b5:	8b 45 f0             	mov    -0x10(%rbp),%eax
  4012b8:	3d 91 00 00 00       	cmp    $0x91,%eax
  4012bd:	74 37                	je     4012f6 <phase_3+0x148>
  4012bf:	e8 d0 0e 00 00       	callq  402194 <explode_bomb>
  4012c4:	eb 30                	jmp    4012f6 <phase_3+0x148>
  4012c6:	c6 45 ff 6f          	movb   $0x6f,-0x1(%rbp)
  4012ca:	8b 45 f0             	mov    -0x10(%rbp),%eax
  4012cd:	83 f8 39             	cmp    $0x39,%eax
  4012d0:	74 27                	je     4012f9 <phase_3+0x14b>
  4012d2:	e8 bd 0e 00 00       	callq  402194 <explode_bomb>
  4012d7:	eb 20                	jmp    4012f9 <phase_3+0x14b>
  4012d9:	c6 45 ff 65          	movb   $0x65,-0x1(%rbp)
  4012dd:	e8 b2 0e 00 00       	callq  402194 <explode_bomb>
  4012e2:	eb 16                	jmp    4012fa <phase_3+0x14c>
  4012e4:	90                   	nop
  4012e5:	eb 13                	jmp    4012fa <phase_3+0x14c>
  4012e7:	90                   	nop
  4012e8:	eb 10                	jmp    4012fa <phase_3+0x14c>
  4012ea:	90                   	nop
  4012eb:	eb 0d                	jmp    4012fa <phase_3+0x14c>
  4012ed:	90                   	nop
  4012ee:	eb 0a                	jmp    4012fa <phase_3+0x14c>
  4012f0:	90                   	nop
  4012f1:	eb 07                	jmp    4012fa <phase_3+0x14c>
  4012f3:	90                   	nop
  4012f4:	eb 04                	jmp    4012fa <phase_3+0x14c>
  4012f6:	90                   	nop
  4012f7:	eb 01                	jmp    4012fa <phase_3+0x14c>
  4012f9:	90                   	nop
  4012fa:	0f b6 45 ef          	movzbl -0x11(%rbp),%eax
  4012fe:	38 45 ff             	cmp    %al,-0x1(%rbp)
  401301:	74 05                	je     401308 <phase_3+0x15a>
  401303:	e8 8c 0e 00 00       	callq  402194 <explode_bomb>
  401308:	90                   	nop
  401309:	c9                   	leaveq 
  40130a:	c3                   	retq   

000000000040130b <func4>:
  40130b:	55                   	push   %rbp
  40130c:	48 89 e5             	mov    %rsp,%rbp
  40130f:	48 83 ec 10          	sub    $0x10,%rsp
  401313:	89 7d fc             	mov    %edi,-0x4(%rbp)
  401316:	83 7d fc 00          	cmpl   $0x0,-0x4(%rbp)
  40131a:	7f 07                	jg     401323 <func4+0x18>
  40131c:	b8 01 00 00 00       	mov    $0x1,%eax
  401321:	eb 16                	jmp    401339 <func4+0x2e>
  401323:	8b 45 fc             	mov    -0x4(%rbp),%eax
  401326:	83 e8 01             	sub    $0x1,%eax
  401329:	89 c7                	mov    %eax,%edi
  40132b:	e8 db ff ff ff       	callq  40130b <func4>
  401330:	89 c2                	mov    %eax,%edx
  401332:	89 d0                	mov    %edx,%eax
  401334:	c1 e0 03             	shl    $0x3,%eax
  401337:	29 d0                	sub    %edx,%eax
  401339:	c9                   	leaveq 
  40133a:	c3                   	retq   

000000000040133b <phase_4>:
  40133b:	55                   	push   %rbp
  40133c:	48 89 e5             	mov    %rsp,%rbp
  40133f:	48 83 ec 20          	sub    $0x20,%rsp
  401343:	48 89 7d e8          	mov    %rdi,-0x18(%rbp)
  401347:	48 8d 55 f4          	lea    -0xc(%rbp),%rdx
  40134b:	48 8b 45 e8          	mov    -0x18(%rbp),%rax
  40134f:	48 8d 35 6a 11 00 00 	lea    0x116a(%rip),%rsi        # 4024c0 <_IO_stdin_used+0x1c0>
  401356:	48 89 c7             	mov    %rax,%rdi
  401359:	b8 00 00 00 00       	mov    $0x0,%eax
  40135e:	e8 2d fa ff ff       	callq  400d90 <__isoc99_sscanf@plt>
  401363:	89 45 fc             	mov    %eax,-0x4(%rbp)
  401366:	83 7d fc 01          	cmpl   $0x1,-0x4(%rbp)
  40136a:	75 07                	jne    401373 <phase_4+0x38>
  40136c:	8b 45 f4             	mov    -0xc(%rbp),%eax
  40136f:	85 c0                	test   %eax,%eax
  401371:	7f 05                	jg     401378 <phase_4+0x3d>
  401373:	e8 1c 0e 00 00       	callq  402194 <explode_bomb>
  401378:	8b 45 f4             	mov    -0xc(%rbp),%eax
  40137b:	89 c7                	mov    %eax,%edi
  40137d:	e8 89 ff ff ff       	callq  40130b <func4>
  401382:	89 45 f8             	mov    %eax,-0x8(%rbp)
  401385:	81 7d f8 f7 90 0c 00 	cmpl   $0xc90f7,-0x8(%rbp)
  40138c:	74 05                	je     401393 <phase_4+0x58>
  40138e:	e8 01 0e 00 00       	callq  402194 <explode_bomb>
  401393:	90                   	nop
  401394:	c9                   	leaveq 
  401395:	c3                   	retq   

0000000000401396 <phase_5>:
  401396:	55                   	push   %rbp
  401397:	48 89 e5             	mov    %rsp,%rbp
  40139a:	48 83 ec 20          	sub    $0x20,%rsp
  40139e:	48 89 7d e8          	mov    %rdi,-0x18(%rbp)
  4013a2:	48 8b 45 e8          	mov    -0x18(%rbp),%rax
  4013a6:	48 89 c7             	mov    %rax,%rdi
  4013a9:	e8 7b 03 00 00       	callq  401729 <string_length>
  4013ae:	89 45 f8             	mov    %eax,-0x8(%rbp)
  4013b1:	83 7d f8 06          	cmpl   $0x6,-0x8(%rbp)
  4013b5:	74 05                	je     4013bc <phase_5+0x26>
  4013b7:	e8 d8 0d 00 00       	callq  402194 <explode_bomb>
  4013bc:	c7 45 fc 00 00 00 00 	movl   $0x0,-0x4(%rbp)
  4013c3:	eb 31                	jmp    4013f6 <phase_5+0x60>
  4013c5:	8b 45 fc             	mov    -0x4(%rbp),%eax
  4013c8:	48 63 d0             	movslq %eax,%rdx
  4013cb:	48 8b 45 e8          	mov    -0x18(%rbp),%rax
  4013cf:	48 01 d0             	add    %rdx,%rax
  4013d2:	0f b6 00             	movzbl (%rax),%eax
  4013d5:	0f be c0             	movsbl %al,%eax
  4013d8:	83 e0 0f             	and    $0xf,%eax
  4013db:	48 63 d0             	movslq %eax,%rdx
  4013de:	48 8d 05 ab 22 20 00 	lea    0x2022ab(%rip),%rax        # 603690 <array.2954>
  4013e5:	0f b6 14 02          	movzbl (%rdx,%rax,1),%edx
  4013e9:	8b 45 fc             	mov    -0x4(%rbp),%eax
  4013ec:	48 98                	cltq   
  4013ee:	88 54 05 f1          	mov    %dl,-0xf(%rbp,%rax,1)
  4013f2:	83 45 fc 01          	addl   $0x1,-0x4(%rbp)
  4013f6:	83 7d fc 05          	cmpl   $0x5,-0x4(%rbp)
  4013fa:	7e c9                	jle    4013c5 <phase_5+0x2f>
  4013fc:	c6 45 f7 00          	movb   $0x0,-0x9(%rbp)
  401400:	48 8d 45 f1          	lea    -0xf(%rbp),%rax
  401404:	48 8d 35 b8 10 00 00 	lea    0x10b8(%rip),%rsi        # 4024c3 <_IO_stdin_used+0x1c3>
  40140b:	48 89 c7             	mov    %rax,%rdi
  40140e:	e8 48 03 00 00       	callq  40175b <strings_not_equal>
  401413:	85 c0                	test   %eax,%eax
  401415:	74 05                	je     40141c <phase_5+0x86>
  401417:	e8 78 0d 00 00       	callq  402194 <explode_bomb>
  40141c:	90                   	nop
  40141d:	c9                   	leaveq 
  40141e:	c3                   	retq   

000000000040141f <fun6>:
  40141f:	55                   	push   %rbp
  401420:	48 89 e5             	mov    %rsp,%rbp
  401423:	48 89 7d d8          	mov    %rdi,-0x28(%rbp)
  401427:	48 8b 45 d8          	mov    -0x28(%rbp),%rax
  40142b:	48 89 45 f8          	mov    %rax,-0x8(%rbp)
  40142f:	48 8b 45 d8          	mov    -0x28(%rbp),%rax
  401433:	48 89 45 f8          	mov    %rax,-0x8(%rbp)
  401437:	48 8b 45 d8          	mov    -0x28(%rbp),%rax
  40143b:	48 8b 40 08          	mov    0x8(%rax),%rax
  40143f:	48 89 45 f0          	mov    %rax,-0x10(%rbp)
  401443:	48 8b 45 f8          	mov    -0x8(%rbp),%rax
  401447:	48 c7 40 08 00 00 00 	movq   $0x0,0x8(%rax)
  40144e:	00 
  40144f:	eb 7d                	jmp    4014ce <fun6+0xaf>
  401451:	48 8b 45 f8          	mov    -0x8(%rbp),%rax
  401455:	48 89 45 e0          	mov    %rax,-0x20(%rbp)
  401459:	48 8b 45 f8          	mov    -0x8(%rbp),%rax
  40145d:	48 89 45 e8          	mov    %rax,-0x18(%rbp)
  401461:	eb 14                	jmp    401477 <fun6+0x58>
  401463:	48 8b 45 e0          	mov    -0x20(%rbp),%rax
  401467:	48 89 45 e8          	mov    %rax,-0x18(%rbp)
  40146b:	48 8b 45 e0          	mov    -0x20(%rbp),%rax
  40146f:	48 8b 40 08          	mov    0x8(%rax),%rax
  401473:	48 89 45 e0          	mov    %rax,-0x20(%rbp)
  401477:	48 83 7d e0 00       	cmpq   $0x0,-0x20(%rbp)
  40147c:	74 10                	je     40148e <fun6+0x6f>
  40147e:	48 8b 45 e0          	mov    -0x20(%rbp),%rax
  401482:	8b 10                	mov    (%rax),%edx
  401484:	48 8b 45 f0          	mov    -0x10(%rbp),%rax
  401488:	8b 00                	mov    (%rax),%eax
  40148a:	39 c2                	cmp    %eax,%edx
  40148c:	7f d5                	jg     401463 <fun6+0x44>
  40148e:	48 8b 45 e8          	mov    -0x18(%rbp),%rax
  401492:	48 3b 45 e0          	cmp    -0x20(%rbp),%rax
  401496:	74 0e                	je     4014a6 <fun6+0x87>
  401498:	48 8b 45 e8          	mov    -0x18(%rbp),%rax
  40149c:	48 8b 55 f0          	mov    -0x10(%rbp),%rdx
  4014a0:	48 89 50 08          	mov    %rdx,0x8(%rax)
  4014a4:	eb 08                	jmp    4014ae <fun6+0x8f>
  4014a6:	48 8b 45 f0          	mov    -0x10(%rbp),%rax
  4014aa:	48 89 45 f8          	mov    %rax,-0x8(%rbp)
  4014ae:	48 8b 45 f0          	mov    -0x10(%rbp),%rax
  4014b2:	48 8b 40 08          	mov    0x8(%rax),%rax
  4014b6:	48 89 45 e8          	mov    %rax,-0x18(%rbp)
  4014ba:	48 8b 45 f0          	mov    -0x10(%rbp),%rax
  4014be:	48 8b 55 e0          	mov    -0x20(%rbp),%rdx
  4014c2:	48 89 50 08          	mov    %rdx,0x8(%rax)
  4014c6:	48 8b 45 e8          	mov    -0x18(%rbp),%rax
  4014ca:	48 89 45 f0          	mov    %rax,-0x10(%rbp)
  4014ce:	48 83 7d f0 00       	cmpq   $0x0,-0x10(%rbp)
  4014d3:	0f 85 78 ff ff ff    	jne    401451 <fun6+0x32>
  4014d9:	48 8b 45 f8          	mov    -0x8(%rbp),%rax
  4014dd:	5d                   	pop    %rbp
  4014de:	c3                   	retq   

00000000004014df <phase_6>:
  4014df:	55                   	push   %rbp
  4014e0:	48 89 e5             	mov    %rsp,%rbp
  4014e3:	48 83 ec 30          	sub    $0x30,%rsp
  4014e7:	48 89 7d d8          	mov    %rdi,-0x28(%rbp)
  4014eb:	48 8d 05 2e 22 20 00 	lea    0x20222e(%rip),%rax        # 603720 <node0>
  4014f2:	48 89 45 e8          	mov    %rax,-0x18(%rbp)
  4014f6:	48 8b 45 d8          	mov    -0x28(%rbp),%rax
  4014fa:	48 89 c7             	mov    %rax,%rdi
  4014fd:	e8 de f8 ff ff       	callq  400de0 <atoi@plt>
  401502:	89 c2                	mov    %eax,%edx
  401504:	48 8b 45 e8          	mov    -0x18(%rbp),%rax
  401508:	89 10                	mov    %edx,(%rax)
  40150a:	48 8b 45 e8          	mov    -0x18(%rbp),%rax
  40150e:	48 89 c7             	mov    %rax,%rdi
  401511:	e8 09 ff ff ff       	callq  40141f <fun6>
  401516:	48 89 45 e8          	mov    %rax,-0x18(%rbp)
  40151a:	48 8b 45 e8          	mov    -0x18(%rbp),%rax
  40151e:	48 89 45 f0          	mov    %rax,-0x10(%rbp)
  401522:	c7 45 fc 01 00 00 00 	movl   $0x1,-0x4(%rbp)
  401529:	eb 10                	jmp    40153b <phase_6+0x5c>
  40152b:	48 8b 45 f0          	mov    -0x10(%rbp),%rax
  40152f:	48 8b 40 08          	mov    0x8(%rax),%rax
  401533:	48 89 45 f0          	mov    %rax,-0x10(%rbp)
  401537:	83 45 fc 01          	addl   $0x1,-0x4(%rbp)
  40153b:	83 7d fc 06          	cmpl   $0x6,-0x4(%rbp)
  40153f:	7e ea                	jle    40152b <phase_6+0x4c>
  401541:	48 8b 45 f0          	mov    -0x10(%rbp),%rax
  401545:	8b 10                	mov    (%rax),%edx
  401547:	8b 05 d3 21 20 00    	mov    0x2021d3(%rip),%eax        # 603720 <node0>
  40154d:	39 c2                	cmp    %eax,%edx
  40154f:	74 05                	je     401556 <phase_6+0x77>
  401551:	e8 3e 0c 00 00       	callq  402194 <explode_bomb>
  401556:	90                   	nop
  401557:	c9                   	leaveq 
  401558:	c3                   	retq   

0000000000401559 <fun7>:
  401559:	55                   	push   %rbp
  40155a:	48 89 e5             	mov    %rsp,%rbp
  40155d:	48 83 ec 10          	sub    $0x10,%rsp
  401561:	48 89 7d f8          	mov    %rdi,-0x8(%rbp)
  401565:	89 75 f4             	mov    %esi,-0xc(%rbp)
  401568:	48 83 7d f8 00       	cmpq   $0x0,-0x8(%rbp)
  40156d:	75 07                	jne    401576 <fun7+0x1d>
  40156f:	b8 ff ff ff ff       	mov    $0xffffffff,%eax
  401574:	eb 50                	jmp    4015c6 <fun7+0x6d>
  401576:	48 8b 45 f8          	mov    -0x8(%rbp),%rax
  40157a:	8b 00                	mov    (%rax),%eax
  40157c:	3b 45 f4             	cmp    -0xc(%rbp),%eax
  40157f:	7e 19                	jle    40159a <fun7+0x41>
  401581:	48 8b 45 f8          	mov    -0x8(%rbp),%rax
  401585:	48 8b 40 08          	mov    0x8(%rax),%rax
  401589:	8b 55 f4             	mov    -0xc(%rbp),%edx
  40158c:	89 d6                	mov    %edx,%esi
  40158e:	48 89 c7             	mov    %rax,%rdi
  401591:	e8 c3 ff ff ff       	callq  401559 <fun7>
  401596:	01 c0                	add    %eax,%eax
  401598:	eb 2c                	jmp    4015c6 <fun7+0x6d>
  40159a:	48 8b 45 f8          	mov    -0x8(%rbp),%rax
  40159e:	8b 00                	mov    (%rax),%eax
  4015a0:	3b 45 f4             	cmp    -0xc(%rbp),%eax
  4015a3:	75 07                	jne    4015ac <fun7+0x53>
  4015a5:	b8 00 00 00 00       	mov    $0x0,%eax
  4015aa:	eb 1a                	jmp    4015c6 <fun7+0x6d>
  4015ac:	48 8b 45 f8          	mov    -0x8(%rbp),%rax
  4015b0:	48 8b 40 10          	mov    0x10(%rax),%rax
  4015b4:	8b 55 f4             	mov    -0xc(%rbp),%edx
  4015b7:	89 d6                	mov    %edx,%esi
  4015b9:	48 89 c7             	mov    %rax,%rdi
  4015bc:	e8 98 ff ff ff       	callq  401559 <fun7>
  4015c1:	01 c0                	add    %eax,%eax
  4015c3:	83 c0 01             	add    $0x1,%eax
  4015c6:	c9                   	leaveq 
  4015c7:	c3                   	retq   

00000000004015c8 <secret_phase>:
  4015c8:	55                   	push   %rbp
  4015c9:	48 89 e5             	mov    %rsp,%rbp
  4015cc:	48 83 ec 10          	sub    $0x10,%rsp
  4015d0:	e8 e4 03 00 00       	callq  4019b9 <read_line>
  4015d5:	48 89 45 f8          	mov    %rax,-0x8(%rbp)
  4015d9:	48 8b 45 f8          	mov    -0x8(%rbp),%rax
  4015dd:	48 89 c7             	mov    %rax,%rdi
  4015e0:	e8 fb f7 ff ff       	callq  400de0 <atoi@plt>
  4015e5:	89 45 f4             	mov    %eax,-0xc(%rbp)
  4015e8:	83 7d f4 00          	cmpl   $0x0,-0xc(%rbp)
  4015ec:	7e 09                	jle    4015f7 <secret_phase+0x2f>
  4015ee:	81 7d f4 e9 03 00 00 	cmpl   $0x3e9,-0xc(%rbp)
  4015f5:	7e 05                	jle    4015fc <secret_phase+0x34>
  4015f7:	e8 98 0b 00 00       	callq  402194 <explode_bomb>
  4015fc:	8b 45 f4             	mov    -0xc(%rbp),%eax
  4015ff:	89 c6                	mov    %eax,%esi
  401601:	48 8d 3d e8 21 20 00 	lea    0x2021e8(%rip),%rdi        # 6037f0 <n1>
  401608:	e8 4c ff ff ff       	callq  401559 <fun7>
  40160d:	89 45 f0             	mov    %eax,-0x10(%rbp)
  401610:	83 7d f0 02          	cmpl   $0x2,-0x10(%rbp)
  401614:	74 05                	je     40161b <secret_phase+0x53>
  401616:	e8 79 0b 00 00       	callq  402194 <explode_bomb>
  40161b:	48 8d 3d ae 0e 00 00 	lea    0xeae(%rip),%rdi        # 4024d0 <_IO_stdin_used+0x1d0>
  401622:	e8 49 f6 ff ff       	callq  400c70 <puts@plt>
  401627:	e8 a4 0b 00 00       	callq  4021d0 <phase_defused>
  40162c:	90                   	nop
  40162d:	c9                   	leaveq 
  40162e:	c3                   	retq   

000000000040162f <sig_handler>:
  40162f:	55                   	push   %rbp
  401630:	48 89 e5             	mov    %rsp,%rbp
  401633:	48 83 ec 10          	sub    $0x10,%rsp
  401637:	89 7d fc             	mov    %edi,-0x4(%rbp)
  40163a:	48 8d 3d b7 0e 00 00 	lea    0xeb7(%rip),%rdi        # 4024f8 <_IO_stdin_used+0x1f8>
  401641:	e8 2a f6 ff ff       	callq  400c70 <puts@plt>
  401646:	bf 03 00 00 00       	mov    $0x3,%edi
  40164b:	e8 f0 f7 ff ff       	callq  400e40 <sleep@plt>
  401650:	48 8d 3d d9 0e 00 00 	lea    0xed9(%rip),%rdi        # 402530 <_IO_stdin_used+0x230>
  401657:	b8 00 00 00 00       	mov    $0x0,%eax
  40165c:	e8 6f f6 ff ff       	callq  400cd0 <printf@plt>
  401661:	48 8b 05 b8 21 20 00 	mov    0x2021b8(%rip),%rax        # 603820 <stdout@@GLIBC_2.2.5>
  401668:	48 89 c7             	mov    %rax,%rdi
  40166b:	e8 10 f7 ff ff       	callq  400d80 <fflush@plt>
  401670:	bf 01 00 00 00       	mov    $0x1,%edi
  401675:	e8 c6 f7 ff ff       	callq  400e40 <sleep@plt>
  40167a:	48 8d 3d b7 0e 00 00 	lea    0xeb7(%rip),%rdi        # 402538 <_IO_stdin_used+0x238>
  401681:	e8 ea f5 ff ff       	callq  400c70 <puts@plt>
  401686:	bf 10 00 00 00       	mov    $0x10,%edi
  40168b:	e8 80 f7 ff ff       	callq  400e10 <exit@plt>

0000000000401690 <invalid_phase>:
  401690:	55                   	push   %rbp
  401691:	48 89 e5             	mov    %rsp,%rbp
  401694:	48 83 ec 10          	sub    $0x10,%rsp
  401698:	48 89 7d f8          	mov    %rdi,-0x8(%rbp)
  40169c:	48 8b 45 f8          	mov    -0x8(%rbp),%rax
  4016a0:	48 89 c6             	mov    %rax,%rsi
  4016a3:	48 8d 3d 96 0e 00 00 	lea    0xe96(%rip),%rdi        # 402540 <_IO_stdin_used+0x240>
  4016aa:	b8 00 00 00 00       	mov    $0x0,%eax
  4016af:	e8 1c f6 ff ff       	callq  400cd0 <printf@plt>
  4016b4:	bf 08 00 00 00       	mov    $0x8,%edi
  4016b9:	e8 52 f7 ff ff       	callq  400e10 <exit@plt>

00000000004016be <read_six_numbers>:
  4016be:	55                   	push   %rbp
  4016bf:	48 89 e5             	mov    %rsp,%rbp
  4016c2:	48 83 ec 20          	sub    $0x20,%rsp
  4016c6:	48 89 7d e8          	mov    %rdi,-0x18(%rbp)
  4016ca:	48 89 75 e0          	mov    %rsi,-0x20(%rbp)
  4016ce:	48 8b 45 e0          	mov    -0x20(%rbp),%rax
  4016d2:	48 8d 78 14          	lea    0x14(%rax),%rdi
  4016d6:	48 8b 45 e0          	mov    -0x20(%rbp),%rax
  4016da:	48 8d 70 10          	lea    0x10(%rax),%rsi
  4016de:	48 8b 45 e0          	mov    -0x20(%rbp),%rax
  4016e2:	4c 8d 48 0c          	lea    0xc(%rax),%r9
  4016e6:	48 8b 45 e0          	mov    -0x20(%rbp),%rax
  4016ea:	4c 8d 40 08          	lea    0x8(%rax),%r8
  4016ee:	48 8b 45 e0          	mov    -0x20(%rbp),%rax
  4016f2:	48 8d 48 04          	lea    0x4(%rax),%rcx
  4016f6:	48 8b 55 e0          	mov    -0x20(%rbp),%rdx
  4016fa:	48 8b 45 e8          	mov    -0x18(%rbp),%rax
  4016fe:	57                   	push   %rdi
  4016ff:	56                   	push   %rsi
  401700:	48 8d 35 4a 0e 00 00 	lea    0xe4a(%rip),%rsi        # 402551 <_IO_stdin_used+0x251>
  401707:	48 89 c7             	mov    %rax,%rdi
  40170a:	b8 00 00 00 00       	mov    $0x0,%eax
  40170f:	e8 7c f6 ff ff       	callq  400d90 <__isoc99_sscanf@plt>
  401714:	48 83 c4 10          	add    $0x10,%rsp
  401718:	89 45 fc             	mov    %eax,-0x4(%rbp)
  40171b:	83 7d fc 05          	cmpl   $0x5,-0x4(%rbp)
  40171f:	7f 05                	jg     401726 <read_six_numbers+0x68>
  401721:	e8 6e 0a 00 00       	callq  402194 <explode_bomb>
  401726:	90                   	nop
  401727:	c9                   	leaveq 
  401728:	c3                   	retq   

0000000000401729 <string_length>:
  401729:	55                   	push   %rbp
  40172a:	48 89 e5             	mov    %rsp,%rbp
  40172d:	48 89 7d e8          	mov    %rdi,-0x18(%rbp)
  401731:	48 8b 45 e8          	mov    -0x18(%rbp),%rax
  401735:	48 89 45 f0          	mov    %rax,-0x10(%rbp)
  401739:	c7 45 fc 00 00 00 00 	movl   $0x0,-0x4(%rbp)
  401740:	eb 09                	jmp    40174b <string_length+0x22>
  401742:	48 83 45 f0 01       	addq   $0x1,-0x10(%rbp)
  401747:	83 45 fc 01          	addl   $0x1,-0x4(%rbp)
  40174b:	48 8b 45 f0          	mov    -0x10(%rbp),%rax
  40174f:	0f b6 00             	movzbl (%rax),%eax
  401752:	84 c0                	test   %al,%al
  401754:	75 ec                	jne    401742 <string_length+0x19>
  401756:	8b 45 fc             	mov    -0x4(%rbp),%eax
  401759:	5d                   	pop    %rbp
  40175a:	c3                   	retq   

000000000040175b <strings_not_equal>:
  40175b:	55                   	push   %rbp
  40175c:	48 89 e5             	mov    %rsp,%rbp
  40175f:	53                   	push   %rbx
  401760:	48 83 ec 20          	sub    $0x20,%rsp
  401764:	48 89 7d e0          	mov    %rdi,-0x20(%rbp)
  401768:	48 89 75 d8          	mov    %rsi,-0x28(%rbp)
  40176c:	48 8b 45 e0          	mov    -0x20(%rbp),%rax
  401770:	48 89 c7             	mov    %rax,%rdi
  401773:	e8 b1 ff ff ff       	callq  401729 <string_length>
  401778:	89 c3                	mov    %eax,%ebx
  40177a:	48 8b 45 d8          	mov    -0x28(%rbp),%rax
  40177e:	48 89 c7             	mov    %rax,%rdi
  401781:	e8 a3 ff ff ff       	callq  401729 <string_length>
  401786:	39 c3                	cmp    %eax,%ebx
  401788:	74 07                	je     401791 <strings_not_equal+0x36>
  40178a:	b8 01 00 00 00       	mov    $0x1,%eax
  40178f:	eb 45                	jmp    4017d6 <strings_not_equal+0x7b>
  401791:	48 8b 45 e0          	mov    -0x20(%rbp),%rax
  401795:	48 89 45 f0          	mov    %rax,-0x10(%rbp)
  401799:	48 8b 45 d8          	mov    -0x28(%rbp),%rax
  40179d:	48 89 45 e8          	mov    %rax,-0x18(%rbp)
  4017a1:	eb 23                	jmp    4017c6 <strings_not_equal+0x6b>
  4017a3:	48 8b 45 f0          	mov    -0x10(%rbp),%rax
  4017a7:	0f b6 10             	movzbl (%rax),%edx
  4017aa:	48 8b 45 e8          	mov    -0x18(%rbp),%rax
  4017ae:	0f b6 00             	movzbl (%rax),%eax
  4017b1:	38 c2                	cmp    %al,%dl
  4017b3:	74 07                	je     4017bc <strings_not_equal+0x61>
  4017b5:	b8 01 00 00 00       	mov    $0x1,%eax
  4017ba:	eb 1a                	jmp    4017d6 <strings_not_equal+0x7b>
  4017bc:	48 83 45 f0 01       	addq   $0x1,-0x10(%rbp)
  4017c1:	48 83 45 e8 01       	addq   $0x1,-0x18(%rbp)
  4017c6:	48 8b 45 f0          	mov    -0x10(%rbp),%rax
  4017ca:	0f b6 00             	movzbl (%rax),%eax
  4017cd:	84 c0                	test   %al,%al
  4017cf:	75 d2                	jne    4017a3 <strings_not_equal+0x48>
  4017d1:	b8 00 00 00 00       	mov    $0x0,%eax
  4017d6:	48 83 c4 20          	add    $0x20,%rsp
  4017da:	5b                   	pop    %rbx
  4017db:	5d                   	pop    %rbp
  4017dc:	c3                   	retq   

00000000004017dd <open_clientfd>:
  4017dd:	55                   	push   %rbp
  4017de:	48 89 e5             	mov    %rsp,%rbp
  4017e1:	48 83 ec 30          	sub    $0x30,%rsp
  4017e5:	48 89 7d d8          	mov    %rdi,-0x28(%rbp)
  4017e9:	89 75 d4             	mov    %esi,-0x2c(%rbp)
  4017ec:	ba 00 00 00 00       	mov    $0x0,%edx
  4017f1:	be 01 00 00 00       	mov    $0x1,%esi
  4017f6:	bf 02 00 00 00       	mov    $0x2,%edi
  4017fb:	e8 60 f6 ff ff       	callq  400e60 <socket@plt>
  401800:	89 45 fc             	mov    %eax,-0x4(%rbp)
  401803:	83 7d fc 00          	cmpl   $0x0,-0x4(%rbp)
  401807:	79 16                	jns    40181f <open_clientfd+0x42>
  401809:	48 8d 3d 53 0d 00 00 	lea    0xd53(%rip),%rdi        # 402563 <_IO_stdin_used+0x263>
  401810:	e8 5b f4 ff ff       	callq  400c70 <puts@plt>
  401815:	bf 08 00 00 00       	mov    $0x8,%edi
  40181a:	e8 f1 f5 ff ff       	callq  400e10 <exit@plt>
  40181f:	48 8b 45 d8          	mov    -0x28(%rbp),%rax
  401823:	48 89 c7             	mov    %rax,%rdi
  401826:	e8 25 f5 ff ff       	callq  400d50 <gethostbyname@plt>
  40182b:	48 89 45 f0          	mov    %rax,-0x10(%rbp)
  40182f:	48 83 7d f0 00       	cmpq   $0x0,-0x10(%rbp)
  401834:	75 16                	jne    40184c <open_clientfd+0x6f>
  401836:	48 8d 3d 34 0d 00 00 	lea    0xd34(%rip),%rdi        # 402571 <_IO_stdin_used+0x271>
  40183d:	e8 2e f4 ff ff       	callq  400c70 <puts@plt>
  401842:	bf 08 00 00 00       	mov    $0x8,%edi
  401847:	e8 c4 f5 ff ff       	callq  400e10 <exit@plt>
  40184c:	48 8d 45 e0          	lea    -0x20(%rbp),%rax
  401850:	be 10 00 00 00       	mov    $0x10,%esi
  401855:	48 89 c7             	mov    %rax,%rdi
  401858:	e8 73 f5 ff ff       	callq  400dd0 <bzero@plt>
  40185d:	66 c7 45 e0 02 00    	movw   $0x2,-0x20(%rbp)
  401863:	48 8b 45 f0          	mov    -0x10(%rbp),%rax
  401867:	8b 40 14             	mov    0x14(%rax),%eax
  40186a:	48 63 d0             	movslq %eax,%rdx
  40186d:	48 8b 45 f0          	mov    -0x10(%rbp),%rax
  401871:	48 8b 40 18          	mov    0x18(%rax),%rax
  401875:	48 8b 00             	mov    (%rax),%rax
  401878:	48 8d 4d e0          	lea    -0x20(%rbp),%rcx
  40187c:	48 83 c1 04          	add    $0x4,%rcx
  401880:	48 89 ce             	mov    %rcx,%rsi
  401883:	48 89 c7             	mov    %rax,%rdi
  401886:	e8 15 f5 ff ff       	callq  400da0 <bcopy@plt>
  40188b:	8b 45 d4             	mov    -0x2c(%rbp),%eax
  40188e:	0f b7 c0             	movzwl %ax,%eax
  401891:	89 c7                	mov    %eax,%edi
  401893:	e8 28 f4 ff ff       	callq  400cc0 <htons@plt>
  401898:	66 89 45 e2          	mov    %ax,-0x1e(%rbp)
  40189c:	48 8d 4d e0          	lea    -0x20(%rbp),%rcx
  4018a0:	8b 45 fc             	mov    -0x4(%rbp),%eax
  4018a3:	ba 10 00 00 00       	mov    $0x10,%edx
  4018a8:	48 89 ce             	mov    %rcx,%rsi
  4018ab:	89 c7                	mov    %eax,%edi
  4018ad:	e8 6e f5 ff ff       	callq  400e20 <connect@plt>
  4018b2:	85 c0                	test   %eax,%eax
  4018b4:	79 16                	jns    4018cc <open_clientfd+0xef>
  4018b6:	48 8d 3d c2 0c 00 00 	lea    0xcc2(%rip),%rdi        # 40257f <_IO_stdin_used+0x27f>
  4018bd:	e8 ae f3 ff ff       	callq  400c70 <puts@plt>
  4018c2:	bf 08 00 00 00       	mov    $0x8,%edi
  4018c7:	e8 44 f5 ff ff       	callq  400e10 <exit@plt>
  4018cc:	8b 45 fc             	mov    -0x4(%rbp),%eax
  4018cf:	c9                   	leaveq 
  4018d0:	c3                   	retq   

00000000004018d1 <initialize_bomb>:
  4018d1:	55                   	push   %rbp
  4018d2:	48 89 e5             	mov    %rsp,%rbp
  4018d5:	48 8d 35 53 fd ff ff 	lea    -0x2ad(%rip),%rsi        # 40162f <sig_handler>
  4018dc:	bf 02 00 00 00       	mov    $0x2,%edi
  4018e1:	e8 5a f4 ff ff       	callq  400d40 <signal@plt>
  4018e6:	be 50 00 00 00       	mov    $0x50,%esi
  4018eb:	48 8d 3d 9b 0c 00 00 	lea    0xc9b(%rip),%rdi        # 40258d <_IO_stdin_used+0x28d>
  4018f2:	e8 e6 fe ff ff       	callq  4017dd <open_clientfd>
  4018f7:	89 c7                	mov    %eax,%edi
  4018f9:	e8 02 f4 ff ff       	callq  400d00 <close@plt>
  4018fe:	90                   	nop
  4018ff:	5d                   	pop    %rbp
  401900:	c3                   	retq   

0000000000401901 <blank_line>:
  401901:	55                   	push   %rbp
  401902:	48 89 e5             	mov    %rsp,%rbp
  401905:	48 83 ec 10          	sub    $0x10,%rsp
  401909:	48 89 7d f8          	mov    %rdi,-0x8(%rbp)
  40190d:	eb 37                	jmp    401946 <blank_line+0x45>
  40190f:	e8 3c f5 ff ff       	callq  400e50 <__ctype_b_loc@plt>
  401914:	48 8b 08             	mov    (%rax),%rcx
  401917:	48 8b 45 f8          	mov    -0x8(%rbp),%rax
  40191b:	48 8d 50 01          	lea    0x1(%rax),%rdx
  40191f:	48 89 55 f8          	mov    %rdx,-0x8(%rbp)
  401923:	0f b6 00             	movzbl (%rax),%eax
  401926:	48 0f be c0          	movsbq %al,%rax
  40192a:	48 01 c0             	add    %rax,%rax
  40192d:	48 01 c8             	add    %rcx,%rax
  401930:	0f b7 00             	movzwl (%rax),%eax
  401933:	0f b7 c0             	movzwl %ax,%eax
  401936:	25 00 20 00 00       	and    $0x2000,%eax
  40193b:	85 c0                	test   %eax,%eax
  40193d:	75 07                	jne    401946 <blank_line+0x45>
  40193f:	b8 00 00 00 00       	mov    $0x0,%eax
  401944:	eb 10                	jmp    401956 <blank_line+0x55>
  401946:	48 8b 45 f8          	mov    -0x8(%rbp),%rax
  40194a:	0f b6 00             	movzbl (%rax),%eax
  40194d:	84 c0                	test   %al,%al
  40194f:	75 be                	jne    40190f <blank_line+0xe>
  401951:	b8 01 00 00 00       	mov    $0x1,%eax
  401956:	c9                   	leaveq 
  401957:	c3                   	retq   

0000000000401958 <skip>:
  401958:	55                   	push   %rbp
  401959:	48 89 e5             	mov    %rsp,%rbp
  40195c:	48 83 ec 10          	sub    $0x10,%rsp
  401960:	48 8b 0d d9 1e 20 00 	mov    0x201ed9(%rip),%rcx        # 603840 <infile>
  401967:	8b 05 cf 1e 20 00    	mov    0x201ecf(%rip),%eax        # 60383c <num_input_strings>
  40196d:	48 63 d0             	movslq %eax,%rdx
  401970:	48 89 d0             	mov    %rdx,%rax
  401973:	48 c1 e0 02          	shl    $0x2,%rax
  401977:	48 01 d0             	add    %rdx,%rax
  40197a:	48 c1 e0 04          	shl    $0x4,%rax
  40197e:	48 8d 15 db 1e 20 00 	lea    0x201edb(%rip),%rdx        # 603860 <input_strings>
  401985:	48 01 d0             	add    %rdx,%rax
  401988:	48 89 ca             	mov    %rcx,%rdx
  40198b:	be 50 00 00 00       	mov    $0x50,%esi
  401990:	48 89 c7             	mov    %rax,%rdi
  401993:	e8 88 f3 ff ff       	callq  400d20 <fgets@plt>
  401998:	48 89 45 f8          	mov    %rax,-0x8(%rbp)
  40199c:	48 83 7d f8 00       	cmpq   $0x0,-0x8(%rbp)
  4019a1:	74 10                	je     4019b3 <skip+0x5b>
  4019a3:	48 8b 45 f8          	mov    -0x8(%rbp),%rax
  4019a7:	48 89 c7             	mov    %rax,%rdi
  4019aa:	e8 52 ff ff ff       	callq  401901 <blank_line>
  4019af:	85 c0                	test   %eax,%eax
  4019b1:	75 ad                	jne    401960 <skip+0x8>
  4019b3:	48 8b 45 f8          	mov    -0x8(%rbp),%rax
  4019b7:	c9                   	leaveq 
  4019b8:	c3                   	retq   

00000000004019b9 <read_line>:
  4019b9:	55                   	push   %rbp
  4019ba:	48 89 e5             	mov    %rsp,%rbp
  4019bd:	48 83 ec 10          	sub    $0x10,%rsp
  4019c1:	b8 00 00 00 00       	mov    $0x0,%eax
  4019c6:	e8 8d ff ff ff       	callq  401958 <skip>
  4019cb:	48 89 45 f8          	mov    %rax,-0x8(%rbp)
  4019cf:	48 83 7d f8 00       	cmpq   $0x0,-0x8(%rbp)
  4019d4:	75 75                	jne    401a4b <read_line+0x92>
  4019d6:	48 8b 15 63 1e 20 00 	mov    0x201e63(%rip),%rdx        # 603840 <infile>
  4019dd:	48 8b 05 4c 1e 20 00 	mov    0x201e4c(%rip),%rax        # 603830 <stdin@@GLIBC_2.2.5>
  4019e4:	48 39 c2             	cmp    %rax,%rdx
  4019e7:	75 13                	jne    4019fc <read_line+0x43>
  4019e9:	48 8d 3d ab 0b 00 00 	lea    0xbab(%rip),%rdi        # 40259b <_IO_stdin_used+0x29b>
  4019f0:	e8 7b f2 ff ff       	callq  400c70 <puts@plt>
  4019f5:	e8 9a 07 00 00       	callq  402194 <explode_bomb>
  4019fa:	eb 4f                	jmp    401a4b <read_line+0x92>
  4019fc:	48 8d 3d b6 0b 00 00 	lea    0xbb6(%rip),%rdi        # 4025b9 <_IO_stdin_used+0x2b9>
  401a03:	e8 38 f2 ff ff       	callq  400c40 <getenv@plt>
  401a08:	48 85 c0             	test   %rax,%rax
  401a0b:	74 0a                	je     401a17 <read_line+0x5e>
  401a0d:	bf 00 00 00 00       	mov    $0x0,%edi
  401a12:	e8 f9 f3 ff ff       	callq  400e10 <exit@plt>
  401a17:	48 8b 05 12 1e 20 00 	mov    0x201e12(%rip),%rax        # 603830 <stdin@@GLIBC_2.2.5>
  401a1e:	48 89 05 1b 1e 20 00 	mov    %rax,0x201e1b(%rip)        # 603840 <infile>
  401a25:	b8 00 00 00 00       	mov    $0x0,%eax
  401a2a:	e8 29 ff ff ff       	callq  401958 <skip>
  401a2f:	48 89 45 f8          	mov    %rax,-0x8(%rbp)
  401a33:	48 83 7d f8 00       	cmpq   $0x0,-0x8(%rbp)
  401a38:	75 11                	jne    401a4b <read_line+0x92>
  401a3a:	48 8d 3d 5a 0b 00 00 	lea    0xb5a(%rip),%rdi        # 40259b <_IO_stdin_used+0x29b>
  401a41:	e8 2a f2 ff ff       	callq  400c70 <puts@plt>
  401a46:	e8 49 07 00 00       	callq  402194 <explode_bomb>
  401a4b:	8b 05 eb 1d 20 00    	mov    0x201deb(%rip),%eax        # 60383c <num_input_strings>
  401a51:	48 63 d0             	movslq %eax,%rdx
  401a54:	48 89 d0             	mov    %rdx,%rax
  401a57:	48 c1 e0 02          	shl    $0x2,%rax
  401a5b:	48 01 d0             	add    %rdx,%rax
  401a5e:	48 c1 e0 04          	shl    $0x4,%rax
  401a62:	48 8d 15 f7 1d 20 00 	lea    0x201df7(%rip),%rdx        # 603860 <input_strings>
  401a69:	48 01 d0             	add    %rdx,%rax
  401a6c:	48 89 c7             	mov    %rax,%rdi
  401a6f:	e8 2c f2 ff ff       	callq  400ca0 <strlen@plt>
  401a74:	89 45 f4             	mov    %eax,-0xc(%rbp)
  401a77:	83 7d f4 4f          	cmpl   $0x4f,-0xc(%rbp)
  401a7b:	75 11                	jne    401a8e <read_line+0xd5>
  401a7d:	48 8d 3d 40 0b 00 00 	lea    0xb40(%rip),%rdi        # 4025c4 <_IO_stdin_used+0x2c4>
  401a84:	e8 e7 f1 ff ff       	callq  400c70 <puts@plt>
  401a89:	e8 06 07 00 00       	callq  402194 <explode_bomb>
  401a8e:	8b 05 a8 1d 20 00    	mov    0x201da8(%rip),%eax        # 60383c <num_input_strings>
  401a94:	8b 55 f4             	mov    -0xc(%rbp),%edx
  401a97:	83 ea 01             	sub    $0x1,%edx
  401a9a:	48 63 ca             	movslq %edx,%rcx
  401a9d:	48 63 d0             	movslq %eax,%rdx
  401aa0:	48 89 d0             	mov    %rdx,%rax
  401aa3:	48 c1 e0 02          	shl    $0x2,%rax
  401aa7:	48 01 d0             	add    %rdx,%rax
  401aaa:	48 c1 e0 04          	shl    $0x4,%rax
  401aae:	48 8d 14 08          	lea    (%rax,%rcx,1),%rdx
  401ab2:	48 8d 05 a7 1d 20 00 	lea    0x201da7(%rip),%rax        # 603860 <input_strings>
  401ab9:	48 01 d0             	add    %rdx,%rax
  401abc:	c6 00 00             	movb   $0x0,(%rax)
  401abf:	8b 05 77 1d 20 00    	mov    0x201d77(%rip),%eax        # 60383c <num_input_strings>
  401ac5:	8d 50 01             	lea    0x1(%rax),%edx
  401ac8:	89 15 6e 1d 20 00    	mov    %edx,0x201d6e(%rip)        # 60383c <num_input_strings>
  401ace:	48 63 d0             	movslq %eax,%rdx
  401ad1:	48 89 d0             	mov    %rdx,%rax
  401ad4:	48 c1 e0 02          	shl    $0x2,%rax
  401ad8:	48 01 d0             	add    %rdx,%rax
  401adb:	48 c1 e0 04          	shl    $0x4,%rax
  401adf:	48 8d 15 7a 1d 20 00 	lea    0x201d7a(%rip),%rdx        # 603860 <input_strings>
  401ae6:	48 01 d0             	add    %rdx,%rax
  401ae9:	c9                   	leaveq 
  401aea:	c3                   	retq   

0000000000401aeb <writen>:
  401aeb:	55                   	push   %rbp
  401aec:	48 89 e5             	mov    %rsp,%rbp
  401aef:	48 83 ec 40          	sub    $0x40,%rsp
  401af3:	89 7d dc             	mov    %edi,-0x24(%rbp)
  401af6:	48 89 75 d0          	mov    %rsi,-0x30(%rbp)
  401afa:	48 89 55 c8          	mov    %rdx,-0x38(%rbp)
  401afe:	48 8b 45 d0          	mov    -0x30(%rbp),%rax
  401b02:	48 89 45 e8          	mov    %rax,-0x18(%rbp)
  401b06:	48 8b 45 c8          	mov    -0x38(%rbp),%rax
  401b0a:	48 89 45 f8          	mov    %rax,-0x8(%rbp)
  401b0e:	eb 4f                	jmp    401b5f <writen+0x74>
  401b10:	48 8b 55 f8          	mov    -0x8(%rbp),%rdx
  401b14:	48 8b 4d e8          	mov    -0x18(%rbp),%rcx
  401b18:	8b 45 dc             	mov    -0x24(%rbp),%eax
  401b1b:	48 89 ce             	mov    %rcx,%rsi
  401b1e:	89 c7                	mov    %eax,%edi
  401b20:	e8 5b f1 ff ff       	callq  400c80 <write@plt>
  401b25:	48 89 45 f0          	mov    %rax,-0x10(%rbp)
  401b29:	48 83 7d f0 00       	cmpq   $0x0,-0x10(%rbp)
  401b2e:	7f 1f                	jg     401b4f <writen+0x64>
  401b30:	e8 1b f1 ff ff       	callq  400c50 <__errno_location@plt>
  401b35:	8b 00                	mov    (%rax),%eax
  401b37:	83 f8 04             	cmp    $0x4,%eax
  401b3a:	75 0a                	jne    401b46 <writen+0x5b>
  401b3c:	48 c7 45 f0 00 00 00 	movq   $0x0,-0x10(%rbp)
  401b43:	00 
  401b44:	eb 09                	jmp    401b4f <writen+0x64>
  401b46:	48 c7 c0 ff ff ff ff 	mov    $0xffffffffffffffff,%rax
  401b4d:	eb 1b                	jmp    401b6a <writen+0x7f>
  401b4f:	48 8b 45 f0          	mov    -0x10(%rbp),%rax
  401b53:	48 29 45 f8          	sub    %rax,-0x8(%rbp)
  401b57:	48 8b 45 f0          	mov    -0x10(%rbp),%rax
  401b5b:	48 01 45 e8          	add    %rax,-0x18(%rbp)
  401b5f:	48 83 7d f8 00       	cmpq   $0x0,-0x8(%rbp)
  401b64:	75 aa                	jne    401b10 <writen+0x25>
  401b66:	48 8b 45 c8          	mov    -0x38(%rbp),%rax
  401b6a:	c9                   	leaveq 
  401b6b:	c3                   	retq   

0000000000401b6c <send_msg>:
  401b6c:	55                   	push   %rbp
  401b6d:	48 89 e5             	mov    %rsp,%rbp
  401b70:	53                   	push   %rbx
  401b71:	48 81 ec 88 24 00 00 	sub    $0x2488,%rsp
  401b78:	89 bd 7c db ff ff    	mov    %edi,-0x2484(%rbp)
  401b7e:	c7 45 e8 00 00 00 00 	movl   $0x0,-0x18(%rbp)
  401b85:	ba 00 00 00 00       	mov    $0x0,%edx
  401b8a:	be 01 00 00 00       	mov    $0x1,%esi
  401b8f:	bf 02 00 00 00       	mov    $0x2,%edi
  401b94:	e8 c7 f2 ff ff       	callq  400e60 <socket@plt>
  401b99:	89 45 e8             	mov    %eax,-0x18(%rbp)
  401b9c:	83 7d e8 00          	cmpl   $0x0,-0x18(%rbp)
  401ba0:	79 3c                	jns    401bde <send_msg+0x72>
  401ba2:	48 8b 05 77 1c 20 00 	mov    0x201c77(%rip),%rax        # 603820 <stdout@@GLIBC_2.2.5>
  401ba9:	48 8d 15 2f 0a 00 00 	lea    0xa2f(%rip),%rdx        # 4025df <_IO_stdin_used+0x2df>
  401bb0:	48 8d 35 35 0a 00 00 	lea    0xa35(%rip),%rsi        # 4025ec <_IO_stdin_used+0x2ec>
  401bb7:	48 89 c7             	mov    %rax,%rdi
  401bba:	b8 00 00 00 00       	mov    $0x0,%eax
  401bbf:	e8 9c f1 ff ff       	callq  400d60 <fprintf@plt>
  401bc4:	83 7d e8 00          	cmpl   $0x0,-0x18(%rbp)
  401bc8:	74 0a                	je     401bd4 <send_msg+0x68>
  401bca:	8b 45 e8             	mov    -0x18(%rbp),%eax
  401bcd:	89 c7                	mov    %eax,%edi
  401bcf:	e8 2c f1 ff ff       	callq  400d00 <close@plt>
  401bd4:	bf 01 00 00 00       	mov    $0x1,%edi
  401bd9:	e8 32 f2 ff ff       	callq  400e10 <exit@plt>
  401bde:	48 8d 45 d0          	lea    -0x30(%rbp),%rax
  401be2:	be 10 00 00 00       	mov    $0x10,%esi
  401be7:	48 89 c7             	mov    %rax,%rdi
  401bea:	e8 e1 f1 ff ff       	callq  400dd0 <bzero@plt>
  401bef:	66 c7 45 d0 02 00    	movw   $0x2,-0x30(%rbp)
  401bf5:	bf 7a c8 00 00       	mov    $0xc87a,%edi
  401bfa:	e8 c1 f0 ff ff       	callq  400cc0 <htons@plt>
  401bff:	66 89 45 d2          	mov    %ax,-0x2e(%rbp)
  401c03:	48 8d 45 d0          	lea    -0x30(%rbp),%rax
  401c07:	48 83 c0 04          	add    $0x4,%rax
  401c0b:	48 89 c2             	mov    %rax,%rdx
  401c0e:	48 8d 35 78 09 00 00 	lea    0x978(%rip),%rsi        # 40258d <_IO_stdin_used+0x28d>
  401c15:	bf 02 00 00 00       	mov    $0x2,%edi
  401c1a:	b8 00 00 00 00       	mov    $0x0,%eax
  401c1f:	e8 4c f1 ff ff       	callq  400d70 <inet_pton@plt>
  401c24:	85 c0                	test   %eax,%eax
  401c26:	79 3c                	jns    401c64 <send_msg+0xf8>
  401c28:	48 8b 05 f1 1b 20 00 	mov    0x201bf1(%rip),%rax        # 603820 <stdout@@GLIBC_2.2.5>
  401c2f:	48 8d 15 ba 09 00 00 	lea    0x9ba(%rip),%rdx        # 4025f0 <_IO_stdin_used+0x2f0>
  401c36:	48 8d 35 af 09 00 00 	lea    0x9af(%rip),%rsi        # 4025ec <_IO_stdin_used+0x2ec>
  401c3d:	48 89 c7             	mov    %rax,%rdi
  401c40:	b8 00 00 00 00       	mov    $0x0,%eax
  401c45:	e8 16 f1 ff ff       	callq  400d60 <fprintf@plt>
  401c4a:	83 7d e8 00          	cmpl   $0x0,-0x18(%rbp)
  401c4e:	74 0a                	je     401c5a <send_msg+0xee>
  401c50:	8b 45 e8             	mov    -0x18(%rbp),%eax
  401c53:	89 c7                	mov    %eax,%edi
  401c55:	e8 a6 f0 ff ff       	callq  400d00 <close@plt>
  401c5a:	bf 01 00 00 00       	mov    $0x1,%edi
  401c5f:	e8 ac f1 ff ff       	callq  400e10 <exit@plt>
  401c64:	48 8d 4d d0          	lea    -0x30(%rbp),%rcx
  401c68:	8b 45 e8             	mov    -0x18(%rbp),%eax
  401c6b:	ba 10 00 00 00       	mov    $0x10,%edx
  401c70:	48 89 ce             	mov    %rcx,%rsi
  401c73:	89 c7                	mov    %eax,%edi
  401c75:	e8 a6 f1 ff ff       	callq  400e20 <connect@plt>
  401c7a:	85 c0                	test   %eax,%eax
  401c7c:	79 3c                	jns    401cba <send_msg+0x14e>
  401c7e:	48 8b 05 9b 1b 20 00 	mov    0x201b9b(%rip),%rax        # 603820 <stdout@@GLIBC_2.2.5>
  401c85:	48 8d 15 6a 09 00 00 	lea    0x96a(%rip),%rdx        # 4025f6 <_IO_stdin_used+0x2f6>
  401c8c:	48 8d 35 59 09 00 00 	lea    0x959(%rip),%rsi        # 4025ec <_IO_stdin_used+0x2ec>
  401c93:	48 89 c7             	mov    %rax,%rdi
  401c96:	b8 00 00 00 00       	mov    $0x0,%eax
  401c9b:	e8 c0 f0 ff ff       	callq  400d60 <fprintf@plt>
  401ca0:	83 7d e8 00          	cmpl   $0x0,-0x18(%rbp)
  401ca4:	74 0a                	je     401cb0 <send_msg+0x144>
  401ca6:	8b 45 e8             	mov    -0x18(%rbp),%eax
  401ca9:	89 c7                	mov    %eax,%edi
  401cab:	e8 50 f0 ff ff       	callq  400d00 <close@plt>
  401cb0:	bf 01 00 00 00       	mov    $0x1,%edi
  401cb5:	e8 56 f1 ff ff       	callq  400e10 <exit@plt>
  401cba:	48 8d 85 d0 db ff ff 	lea    -0x2430(%rbp),%rax
  401cc1:	48 bb 53 75 62 6a 65 	movabs $0x3a7463656a627553,%rbx
  401cc8:	63 74 3a 
  401ccb:	48 89 18             	mov    %rbx,(%rax)
  401cce:	48 bb 20 42 6f 6d 62 	movabs $0x6f6e20626d6f4220,%rbx
  401cd5:	20 6e 6f 
  401cd8:	48 89 58 08          	mov    %rbx,0x8(%rax)
  401cdc:	48 bb 74 69 66 69 63 	movabs $0x6974616369666974,%rbx
  401ce3:	61 74 69 
  401ce6:	48 89 58 10          	mov    %rbx,0x10(%rax)
  401cea:	c7 40 18 6f 6e 0a 00 	movl   $0xa6e6f,0x18(%rax)
  401cf1:	48 8d 95 d0 db ff ff 	lea    -0x2430(%rbp),%rdx
  401cf8:	48 8d 85 d0 df ff ff 	lea    -0x2030(%rbp),%rax
  401cff:	48 89 d6             	mov    %rdx,%rsi
  401d02:	48 89 c7             	mov    %rax,%rdi
  401d05:	e8 e6 f0 ff ff       	callq  400df0 <strcat@plt>
  401d0a:	48 8d 85 d0 db ff ff 	lea    -0x2430(%rbp),%rax
  401d11:	66 c7 00 0a 00       	movw   $0xa,(%rax)
  401d16:	48 8d 95 d0 db ff ff 	lea    -0x2430(%rbp),%rdx
  401d1d:	48 8d 85 d0 df ff ff 	lea    -0x2030(%rbp),%rax
  401d24:	48 89 d6             	mov    %rdx,%rsi
  401d27:	48 89 c7             	mov    %rax,%rdi
  401d2a:	e8 c1 f0 ff ff       	callq  400df0 <strcat@plt>
  401d2f:	bf 00 00 00 00       	mov    $0x0,%edi
  401d34:	e8 77 f0 ff ff       	callq  400db0 <cuserid@plt>
  401d39:	48 89 45 e0          	mov    %rax,-0x20(%rbp)
  401d3d:	48 83 7d e0 00       	cmpq   $0x0,-0x20(%rbp)
  401d42:	75 19                	jne    401d5d <send_msg+0x1f1>
  401d44:	48 8d 85 80 db ff ff 	lea    -0x2480(%rbp),%rax
  401d4b:	c7 00 6e 6f 62 6f    	movl   $0x6f626f6e,(%rax)
  401d51:	66 c7 40 04 64 79    	movw   $0x7964,0x4(%rax)
  401d57:	c6 40 06 00          	movb   $0x0,0x6(%rax)
  401d5b:	eb 16                	jmp    401d73 <send_msg+0x207>
  401d5d:	48 8b 55 e0          	mov    -0x20(%rbp),%rdx
  401d61:	48 8d 85 80 db ff ff 	lea    -0x2480(%rbp),%rax
  401d68:	48 89 d6             	mov    %rdx,%rsi
  401d6b:	48 89 c7             	mov    %rax,%rdi
  401d6e:	e8 ed ee ff ff       	callq  400c60 <strcpy@plt>
  401d73:	8b 0d c3 1a 20 00    	mov    0x201ac3(%rip),%ecx        # 60383c <num_input_strings>
  401d79:	83 bd 7c db ff ff 00 	cmpl   $0x0,-0x2484(%rbp)
  401d80:	74 09                	je     401d8b <send_msg+0x21f>
  401d82:	48 8d 05 7b 08 00 00 	lea    0x87b(%rip),%rax        # 402604 <_IO_stdin_used+0x304>
  401d89:	eb 07                	jmp    401d92 <send_msg+0x226>
  401d8b:	48 8d 05 7a 08 00 00 	lea    0x87a(%rip),%rax        # 40260c <_IO_stdin_used+0x30c>
  401d92:	8b 15 c8 13 20 00    	mov    0x2013c8(%rip),%edx        # 603160 <bomb_id>
  401d98:	48 8d b5 80 db ff ff 	lea    -0x2480(%rbp),%rsi
  401d9f:	48 8d bd d0 db ff ff 	lea    -0x2430(%rbp),%rdi
  401da6:	48 83 ec 08          	sub    $0x8,%rsp
  401daa:	51                   	push   %rcx
  401dab:	49 89 c1             	mov    %rax,%r9
  401dae:	49 89 f0             	mov    %rsi,%r8
  401db1:	89 d1                	mov    %edx,%ecx
  401db3:	48 8d 15 c6 13 20 00 	lea    0x2013c6(%rip),%rdx        # 603180 <lab_id>
  401dba:	48 8d 35 54 08 00 00 	lea    0x854(%rip),%rsi        # 402615 <_IO_stdin_used+0x315>
  401dc1:	b8 00 00 00 00       	mov    $0x0,%eax
  401dc6:	e8 35 f0 ff ff       	callq  400e00 <sprintf@plt>
  401dcb:	48 83 c4 10          	add    $0x10,%rsp
  401dcf:	48 8d 95 d0 db ff ff 	lea    -0x2430(%rbp),%rdx
  401dd6:	48 8d 85 d0 df ff ff 	lea    -0x2030(%rbp),%rax
  401ddd:	48 89 d6             	mov    %rdx,%rsi
  401de0:	48 89 c7             	mov    %rax,%rdi
  401de3:	e8 08 f0 ff ff       	callq  400df0 <strcat@plt>
  401de8:	c7 45 ec 00 00 00 00 	movl   $0x0,-0x14(%rbp)
  401def:	e9 82 00 00 00       	jmpq   401e76 <send_msg+0x30a>
  401df4:	8b 45 ec             	mov    -0x14(%rbp),%eax
  401df7:	48 63 d0             	movslq %eax,%rdx
  401dfa:	48 89 d0             	mov    %rdx,%rax
  401dfd:	48 c1 e0 02          	shl    $0x2,%rax
  401e01:	48 01 d0             	add    %rdx,%rax
  401e04:	48 c1 e0 04          	shl    $0x4,%rax
  401e08:	48 8d 15 51 1a 20 00 	lea    0x201a51(%rip),%rdx        # 603860 <input_strings>
  401e0f:	48 8d 34 10          	lea    (%rax,%rdx,1),%rsi
  401e13:	8b 45 ec             	mov    -0x14(%rbp),%eax
  401e16:	8d 78 01             	lea    0x1(%rax),%edi
  401e19:	8b 15 41 13 20 00    	mov    0x201341(%rip),%edx        # 603160 <bomb_id>
  401e1f:	48 8d 8d 80 db ff ff 	lea    -0x2480(%rbp),%rcx
  401e26:	48 8d 85 d0 db ff ff 	lea    -0x2430(%rbp),%rax
  401e2d:	48 83 ec 08          	sub    $0x8,%rsp
  401e31:	56                   	push   %rsi
  401e32:	41 89 f9             	mov    %edi,%r9d
  401e35:	49 89 c8             	mov    %rcx,%r8
  401e38:	89 d1                	mov    %edx,%ecx
  401e3a:	48 8d 15 3f 13 20 00 	lea    0x20133f(%rip),%rdx        # 603180 <lab_id>
  401e41:	48 8d 35 e9 07 00 00 	lea    0x7e9(%rip),%rsi        # 402631 <_IO_stdin_used+0x331>
  401e48:	48 89 c7             	mov    %rax,%rdi
  401e4b:	b8 00 00 00 00       	mov    $0x0,%eax
  401e50:	e8 ab ef ff ff       	callq  400e00 <sprintf@plt>
  401e55:	48 83 c4 10          	add    $0x10,%rsp
  401e59:	48 8d 95 d0 db ff ff 	lea    -0x2430(%rbp),%rdx
  401e60:	48 8d 85 d0 df ff ff 	lea    -0x2030(%rbp),%rax
  401e67:	48 89 d6             	mov    %rdx,%rsi
  401e6a:	48 89 c7             	mov    %rax,%rdi
  401e6d:	e8 7e ef ff ff       	callq  400df0 <strcat@plt>
  401e72:	83 45 ec 01          	addl   $0x1,-0x14(%rbp)
  401e76:	8b 05 c0 19 20 00    	mov    0x2019c0(%rip),%eax        # 60383c <num_input_strings>
  401e7c:	39 45 ec             	cmp    %eax,-0x14(%rbp)
  401e7f:	0f 8c 6f ff ff ff    	jl     401df4 <send_msg+0x288>
  401e85:	48 8d 85 d0 df ff ff 	lea    -0x2030(%rbp),%rax
  401e8c:	48 89 c7             	mov    %rax,%rdi
  401e8f:	e8 0c ee ff ff       	callq  400ca0 <strlen@plt>
  401e94:	48 89 c2             	mov    %rax,%rdx
  401e97:	48 8d 8d d0 df ff ff 	lea    -0x2030(%rbp),%rcx
  401e9e:	8b 45 e8             	mov    -0x18(%rbp),%eax
  401ea1:	48 89 ce             	mov    %rcx,%rsi
  401ea4:	89 c7                	mov    %eax,%edi
  401ea6:	e8 40 fc ff ff       	callq  401aeb <writen>
  401eab:	48 89 c3             	mov    %rax,%rbx
  401eae:	48 8d 85 d0 df ff ff 	lea    -0x2030(%rbp),%rax
  401eb5:	48 89 c7             	mov    %rax,%rdi
  401eb8:	e8 e3 ed ff ff       	callq  400ca0 <strlen@plt>
  401ebd:	48 39 c3             	cmp    %rax,%rbx
  401ec0:	73 3c                	jae    401efe <send_msg+0x392>
  401ec2:	48 8b 05 57 19 20 00 	mov    0x201957(%rip),%rax        # 603820 <stdout@@GLIBC_2.2.5>
  401ec9:	48 8d 15 7d 07 00 00 	lea    0x77d(%rip),%rdx        # 40264d <_IO_stdin_used+0x34d>
  401ed0:	48 8d 35 15 07 00 00 	lea    0x715(%rip),%rsi        # 4025ec <_IO_stdin_used+0x2ec>
  401ed7:	48 89 c7             	mov    %rax,%rdi
  401eda:	b8 00 00 00 00       	mov    $0x0,%eax
  401edf:	e8 7c ee ff ff       	callq  400d60 <fprintf@plt>
  401ee4:	83 7d e8 00          	cmpl   $0x0,-0x18(%rbp)
  401ee8:	74 0a                	je     401ef4 <send_msg+0x388>
  401eea:	8b 45 e8             	mov    -0x18(%rbp),%eax
  401eed:	89 c7                	mov    %eax,%edi
  401eef:	e8 0c ee ff ff       	callq  400d00 <close@plt>
  401ef4:	bf 01 00 00 00       	mov    $0x1,%edi
  401ef9:	e8 12 ef ff ff       	callq  400e10 <exit@plt>
  401efe:	8b 45 e8             	mov    -0x18(%rbp),%eax
  401f01:	89 c7                	mov    %eax,%edi
  401f03:	e8 f8 ed ff ff       	callq  400d00 <close@plt>
  401f08:	90                   	nop
  401f09:	48 8b 5d f8          	mov    -0x8(%rbp),%rbx
  401f0d:	c9                   	leaveq 
  401f0e:	c3                   	retq   

0000000000401f0f <send_msg_2>:
  401f0f:	55                   	push   %rbp
  401f10:	48 89 e5             	mov    %rsp,%rbp
  401f13:	48 83 c4 80          	add    $0xffffffffffffff80,%rsp
  401f17:	89 7d 8c             	mov    %edi,-0x74(%rbp)
  401f1a:	bf 00 00 00 00       	mov    $0x0,%edi
  401f1f:	e8 cc ed ff ff       	callq  400cf0 <dup@plt>
  401f24:	89 45 f8             	mov    %eax,-0x8(%rbp)
  401f27:	83 7d f8 ff          	cmpl   $0xffffffff,-0x8(%rbp)
  401f2b:	75 16                	jne    401f43 <send_msg_2+0x34>
  401f2d:	48 8d 3d 2c 07 00 00 	lea    0x72c(%rip),%rdi        # 402660 <_IO_stdin_used+0x360>
  401f34:	e8 37 ed ff ff       	callq  400c70 <puts@plt>
  401f39:	bf 08 00 00 00       	mov    $0x8,%edi
  401f3e:	e8 cd ee ff ff       	callq  400e10 <exit@plt>
  401f43:	bf 00 00 00 00       	mov    $0x0,%edi
  401f48:	e8 b3 ed ff ff       	callq  400d00 <close@plt>
  401f4d:	83 f8 ff             	cmp    $0xffffffff,%eax
  401f50:	75 16                	jne    401f68 <send_msg_2+0x59>
  401f52:	48 8d 3d 1b 07 00 00 	lea    0x71b(%rip),%rdi        # 402674 <_IO_stdin_used+0x374>
  401f59:	e8 12 ed ff ff       	callq  400c70 <puts@plt>
  401f5e:	bf 08 00 00 00       	mov    $0x8,%edi
  401f63:	e8 a8 ee ff ff       	callq  400e10 <exit@plt>
  401f68:	e8 c3 ed ff ff       	callq  400d30 <tmpfile@plt>
  401f6d:	48 89 45 f0          	mov    %rax,-0x10(%rbp)
  401f71:	48 83 7d f0 00       	cmpq   $0x0,-0x10(%rbp)
  401f76:	75 16                	jne    401f8e <send_msg_2+0x7f>
  401f78:	48 8d 3d 08 07 00 00 	lea    0x708(%rip),%rdi        # 402687 <_IO_stdin_used+0x387>
  401f7f:	e8 ec ec ff ff       	callq  400c70 <puts@plt>
  401f84:	bf 08 00 00 00       	mov    $0x8,%edi
  401f89:	e8 82 ee ff ff       	callq  400e10 <exit@plt>
  401f8e:	48 8b 45 f0          	mov    -0x10(%rbp),%rax
  401f92:	48 89 c1             	mov    %rax,%rcx
  401f95:	ba 1b 00 00 00       	mov    $0x1b,%edx
  401f9a:	be 01 00 00 00       	mov    $0x1,%esi
  401f9f:	48 8d 3d f6 06 00 00 	lea    0x6f6(%rip),%rdi        # 40269c <_IO_stdin_used+0x39c>
  401fa6:	e8 85 ee ff ff       	callq  400e30 <fwrite@plt>
  401fab:	48 8b 45 f0          	mov    -0x10(%rbp),%rax
  401faf:	48 89 c6             	mov    %rax,%rsi
  401fb2:	bf 0a 00 00 00       	mov    $0xa,%edi
  401fb7:	e8 54 ed ff ff       	callq  400d10 <fputc@plt>
  401fbc:	bf 00 00 00 00       	mov    $0x0,%edi
  401fc1:	e8 ea ed ff ff       	callq  400db0 <cuserid@plt>
  401fc6:	48 89 45 e8          	mov    %rax,-0x18(%rbp)
  401fca:	48 83 7d e8 00       	cmpq   $0x0,-0x18(%rbp)
  401fcf:	75 16                	jne    401fe7 <send_msg_2+0xd8>
  401fd1:	48 8d 45 90          	lea    -0x70(%rbp),%rax
  401fd5:	c7 00 6e 6f 62 6f    	movl   $0x6f626f6e,(%rax)
  401fdb:	66 c7 40 04 64 79    	movw   $0x7964,0x4(%rax)
  401fe1:	c6 40 06 00          	movb   $0x0,0x6(%rax)
  401fe5:	eb 13                	jmp    401ffa <send_msg_2+0xeb>
  401fe7:	48 8b 55 e8          	mov    -0x18(%rbp),%rdx
  401feb:	48 8d 45 90          	lea    -0x70(%rbp),%rax
  401fef:	48 89 d6             	mov    %rdx,%rsi
  401ff2:	48 89 c7             	mov    %rax,%rdi
  401ff5:	e8 66 ec ff ff       	callq  400c60 <strcpy@plt>
  401ffa:	8b 0d 3c 18 20 00    	mov    0x20183c(%rip),%ecx        # 60383c <num_input_strings>
  402000:	83 7d 8c 00          	cmpl   $0x0,-0x74(%rbp)
  402004:	74 09                	je     40200f <send_msg_2+0x100>
  402006:	48 8d 05 f7 05 00 00 	lea    0x5f7(%rip),%rax        # 402604 <_IO_stdin_used+0x304>
  40200d:	eb 07                	jmp    402016 <send_msg_2+0x107>
  40200f:	48 8d 05 f6 05 00 00 	lea    0x5f6(%rip),%rax        # 40260c <_IO_stdin_used+0x30c>
  402016:	8b 15 44 11 20 00    	mov    0x201144(%rip),%edx        # 603160 <bomb_id>
  40201c:	48 8d 75 90          	lea    -0x70(%rbp),%rsi
  402020:	48 8b 7d f0          	mov    -0x10(%rbp),%rdi
  402024:	48 83 ec 08          	sub    $0x8,%rsp
  402028:	51                   	push   %rcx
  402029:	49 89 c1             	mov    %rax,%r9
  40202c:	49 89 f0             	mov    %rsi,%r8
  40202f:	89 d1                	mov    %edx,%ecx
  402031:	48 8d 15 48 11 20 00 	lea    0x201148(%rip),%rdx        # 603180 <lab_id>
  402038:	48 8d 35 d6 05 00 00 	lea    0x5d6(%rip),%rsi        # 402615 <_IO_stdin_used+0x315>
  40203f:	b8 00 00 00 00       	mov    $0x0,%eax
  402044:	e8 17 ed ff ff       	callq  400d60 <fprintf@plt>
  402049:	48 83 c4 10          	add    $0x10,%rsp
  40204d:	c7 45 fc 00 00 00 00 	movl   $0x0,-0x4(%rbp)
  402054:	eb 63                	jmp    4020b9 <send_msg_2+0x1aa>
  402056:	8b 45 fc             	mov    -0x4(%rbp),%eax
  402059:	48 63 d0             	movslq %eax,%rdx
  40205c:	48 89 d0             	mov    %rdx,%rax
  40205f:	48 c1 e0 02          	shl    $0x2,%rax
  402063:	48 01 d0             	add    %rdx,%rax
  402066:	48 c1 e0 04          	shl    $0x4,%rax
  40206a:	48 8d 15 ef 17 20 00 	lea    0x2017ef(%rip),%rdx        # 603860 <input_strings>
  402071:	48 8d 34 10          	lea    (%rax,%rdx,1),%rsi
  402075:	8b 45 fc             	mov    -0x4(%rbp),%eax
  402078:	8d 78 01             	lea    0x1(%rax),%edi
  40207b:	8b 15 df 10 20 00    	mov    0x2010df(%rip),%edx        # 603160 <bomb_id>
  402081:	48 8d 4d 90          	lea    -0x70(%rbp),%rcx
  402085:	48 8b 45 f0          	mov    -0x10(%rbp),%rax
  402089:	48 83 ec 08          	sub    $0x8,%rsp
  40208d:	56                   	push   %rsi
  40208e:	41 89 f9             	mov    %edi,%r9d
  402091:	49 89 c8             	mov    %rcx,%r8
  402094:	89 d1                	mov    %edx,%ecx
  402096:	48 8d 15 e3 10 20 00 	lea    0x2010e3(%rip),%rdx        # 603180 <lab_id>
  40209d:	48 8d 35 8d 05 00 00 	lea    0x58d(%rip),%rsi        # 402631 <_IO_stdin_used+0x331>
  4020a4:	48 89 c7             	mov    %rax,%rdi
  4020a7:	b8 00 00 00 00       	mov    $0x0,%eax
  4020ac:	e8 af ec ff ff       	callq  400d60 <fprintf@plt>
  4020b1:	48 83 c4 10          	add    $0x10,%rsp
  4020b5:	83 45 fc 01          	addl   $0x1,-0x4(%rbp)
  4020b9:	8b 05 7d 17 20 00    	mov    0x20177d(%rip),%eax        # 60383c <num_input_strings>
  4020bf:	39 45 fc             	cmp    %eax,-0x4(%rbp)
  4020c2:	7c 92                	jl     402056 <send_msg_2+0x147>
  4020c4:	48 8b 45 f0          	mov    -0x10(%rbp),%rax
  4020c8:	48 89 c7             	mov    %rax,%rdi
  4020cb:	e8 10 ec ff ff       	callq  400ce0 <rewind@plt>
  4020d0:	4c 8d 05 e1 05 00 00 	lea    0x5e1(%rip),%r8        # 4026b8 <_IO_stdin_used+0x3b8>
  4020d7:	48 8d 0d e4 05 00 00 	lea    0x5e4(%rip),%rcx        # 4026c2 <_IO_stdin_used+0x3c2>
  4020de:	48 8d 15 e5 05 00 00 	lea    0x5e5(%rip),%rdx        # 4026ca <_IO_stdin_used+0x3ca>
  4020e5:	48 8d 35 f5 05 00 00 	lea    0x5f5(%rip),%rsi        # 4026e1 <_IO_stdin_used+0x3e1>
  4020ec:	48 8d 3d ad 1d 20 00 	lea    0x201dad(%rip),%rdi        # 603ea0 <scratch>
  4020f3:	b8 00 00 00 00       	mov    $0x0,%eax
  4020f8:	e8 03 ed ff ff       	callq  400e00 <sprintf@plt>
  4020fd:	48 8d 3d 9c 1d 20 00 	lea    0x201d9c(%rip),%rdi        # 603ea0 <scratch>
  402104:	e8 a7 eb ff ff       	callq  400cb0 <system@plt>
  402109:	85 c0                	test   %eax,%eax
  40210b:	74 16                	je     402123 <send_msg_2+0x214>
  40210d:	48 8d 3d d6 05 00 00 	lea    0x5d6(%rip),%rdi        # 4026ea <_IO_stdin_used+0x3ea>
  402114:	e8 57 eb ff ff       	callq  400c70 <puts@plt>
  402119:	bf 08 00 00 00       	mov    $0x8,%edi
  40211e:	e8 ed ec ff ff       	callq  400e10 <exit@plt>
  402123:	48 8b 45 f0          	mov    -0x10(%rbp),%rax
  402127:	48 89 c7             	mov    %rax,%rdi
  40212a:	e8 61 eb ff ff       	callq  400c90 <fclose@plt>
  40212f:	85 c0                	test   %eax,%eax
  402131:	74 16                	je     402149 <send_msg_2+0x23a>
  402133:	48 8d 3d ca 05 00 00 	lea    0x5ca(%rip),%rdi        # 402704 <_IO_stdin_used+0x404>
  40213a:	e8 31 eb ff ff       	callq  400c70 <puts@plt>
  40213f:	bf 08 00 00 00       	mov    $0x8,%edi
  402144:	e8 c7 ec ff ff       	callq  400e10 <exit@plt>
  402149:	8b 45 f8             	mov    -0x8(%rbp),%eax
  40214c:	89 c7                	mov    %eax,%edi
  40214e:	e8 9d eb ff ff       	callq  400cf0 <dup@plt>
  402153:	85 c0                	test   %eax,%eax
  402155:	74 16                	je     40216d <send_msg_2+0x25e>
  402157:	48 8d 3d bf 05 00 00 	lea    0x5bf(%rip),%rdi        # 40271d <_IO_stdin_used+0x41d>
  40215e:	e8 0d eb ff ff       	callq  400c70 <puts@plt>
  402163:	bf 08 00 00 00       	mov    $0x8,%edi
  402168:	e8 a3 ec ff ff       	callq  400e10 <exit@plt>
  40216d:	8b 45 f8             	mov    -0x8(%rbp),%eax
  402170:	89 c7                	mov    %eax,%edi
  402172:	e8 89 eb ff ff       	callq  400d00 <close@plt>
  402177:	85 c0                	test   %eax,%eax
  402179:	74 16                	je     402191 <send_msg_2+0x282>
  40217b:	48 8d 3d b6 05 00 00 	lea    0x5b6(%rip),%rdi        # 402738 <_IO_stdin_used+0x438>
  402182:	e8 e9 ea ff ff       	callq  400c70 <puts@plt>
  402187:	bf 08 00 00 00       	mov    $0x8,%edi
  40218c:	e8 7f ec ff ff       	callq  400e10 <exit@plt>
  402191:	90                   	nop
  402192:	c9                   	leaveq 
  402193:	c3                   	retq   

0000000000402194 <explode_bomb>:
  402194:	55                   	push   %rbp
  402195:	48 89 e5             	mov    %rsp,%rbp
  402198:	48 8d 3d b0 05 00 00 	lea    0x5b0(%rip),%rdi        # 40274f <_IO_stdin_used+0x44f>
  40219f:	e8 cc ea ff ff       	callq  400c70 <puts@plt>
  4021a4:	48 8d 3d ad 05 00 00 	lea    0x5ad(%rip),%rdi        # 402758 <_IO_stdin_used+0x458>
  4021ab:	e8 c0 ea ff ff       	callq  400c70 <puts@plt>
  4021b0:	bf 00 00 00 00       	mov    $0x0,%edi
  4021b5:	e8 b2 f9 ff ff       	callq  401b6c <send_msg>
  4021ba:	48 8d 3d af 05 00 00 	lea    0x5af(%rip),%rdi        # 402770 <_IO_stdin_used+0x470>
  4021c1:	e8 aa ea ff ff       	callq  400c70 <puts@plt>
  4021c6:	bf 08 00 00 00       	mov    $0x8,%edi
  4021cb:	e8 40 ec ff ff       	callq  400e10 <exit@plt>

00000000004021d0 <phase_defused>:
  4021d0:	55                   	push   %rbp
  4021d1:	48 89 e5             	mov    %rsp,%rbp
  4021d4:	48 83 ec 70          	sub    $0x70,%rsp
  4021d8:	bf 01 00 00 00       	mov    $0x1,%edi
  4021dd:	e8 8a f9 ff ff       	callq  401b6c <send_msg>
  4021e2:	8b 05 54 16 20 00    	mov    0x201654(%rip),%eax        # 60383c <num_input_strings>
  4021e8:	83 f8 06             	cmp    $0x6,%eax
  4021eb:	0f 85 80 00 00 00    	jne    402271 <phase_defused+0xa1>
  4021f1:	48 8d 55 a0          	lea    -0x60(%rbp),%rdx
  4021f5:	48 8d 45 9c          	lea    -0x64(%rbp),%rax
  4021f9:	48 89 d1             	mov    %rdx,%rcx
  4021fc:	48 89 c2             	mov    %rax,%rdx
  4021ff:	48 8d 35 8d 05 00 00 	lea    0x58d(%rip),%rsi        # 402793 <_IO_stdin_used+0x493>
  402206:	48 8d 3d 43 17 20 00 	lea    0x201743(%rip),%rdi        # 603950 <input_strings+0xf0>
  40220d:	b8 00 00 00 00       	mov    $0x0,%eax
  402212:	e8 79 eb ff ff       	callq  400d90 <__isoc99_sscanf@plt>
  402217:	89 45 fc             	mov    %eax,-0x4(%rbp)
  40221a:	83 7d fc 02          	cmpl   $0x2,-0x4(%rbp)
  40221e:	75 39                	jne    402259 <phase_defused+0x89>
  402220:	48 8d 45 a0          	lea    -0x60(%rbp),%rax
  402224:	48 8d 35 6e 05 00 00 	lea    0x56e(%rip),%rsi        # 402799 <_IO_stdin_used+0x499>
  40222b:	48 89 c7             	mov    %rax,%rdi
  40222e:	e8 28 f5 ff ff       	callq  40175b <strings_not_equal>
  402233:	85 c0                	test   %eax,%eax
  402235:	75 22                	jne    402259 <phase_defused+0x89>
  402237:	48 8d 3d 6a 05 00 00 	lea    0x56a(%rip),%rdi        # 4027a8 <_IO_stdin_used+0x4a8>
  40223e:	e8 2d ea ff ff       	callq  400c70 <puts@plt>
  402243:	48 8d 3d 86 05 00 00 	lea    0x586(%rip),%rdi        # 4027d0 <_IO_stdin_used+0x4d0>
  40224a:	e8 21 ea ff ff       	callq  400c70 <puts@plt>
  40224f:	b8 00 00 00 00       	mov    $0x0,%eax
  402254:	e8 6f f3 ff ff       	callq  4015c8 <secret_phase>
  402259:	48 8d 3d a8 05 00 00 	lea    0x5a8(%rip),%rdi        # 402808 <_IO_stdin_used+0x508>
  402260:	e8 0b ea ff ff       	callq  400c70 <puts@plt>
  402265:	48 8d 3d cc 05 00 00 	lea    0x5cc(%rip),%rdi        # 402838 <_IO_stdin_used+0x538>
  40226c:	e8 ff e9 ff ff       	callq  400c70 <puts@plt>
  402271:	90                   	nop
  402272:	c9                   	leaveq 
  402273:	c3                   	retq   
  402274:	66 2e 0f 1f 84 00 00 	nopw   %cs:0x0(%rax,%rax,1)
  40227b:	00 00 00 
  40227e:	66 90                	xchg   %ax,%ax

0000000000402280 <__libc_csu_init>:
  402280:	41 57                	push   %r15
  402282:	41 56                	push   %r14
  402284:	41 89 ff             	mov    %edi,%r15d
  402287:	41 55                	push   %r13
  402289:	41 54                	push   %r12
  40228b:	4c 8d 25 76 0b 20 00 	lea    0x200b76(%rip),%r12        # 602e08 <__frame_dummy_init_array_entry>
  402292:	55                   	push   %rbp
  402293:	48 8d 2d 76 0b 20 00 	lea    0x200b76(%rip),%rbp        # 602e10 <__init_array_end>
  40229a:	53                   	push   %rbx
  40229b:	49 89 f6             	mov    %rsi,%r14
  40229e:	49 89 d5             	mov    %rdx,%r13
  4022a1:	4c 29 e5             	sub    %r12,%rbp
  4022a4:	48 83 ec 08          	sub    $0x8,%rsp
  4022a8:	48 c1 fd 03          	sar    $0x3,%rbp
  4022ac:	e8 5f e9 ff ff       	callq  400c10 <_init>
  4022b1:	48 85 ed             	test   %rbp,%rbp
  4022b4:	74 20                	je     4022d6 <__libc_csu_init+0x56>
  4022b6:	31 db                	xor    %ebx,%ebx
  4022b8:	0f 1f 84 00 00 00 00 	nopl   0x0(%rax,%rax,1)
  4022bf:	00 
  4022c0:	4c 89 ea             	mov    %r13,%rdx
  4022c3:	4c 89 f6             	mov    %r14,%rsi
  4022c6:	44 89 ff             	mov    %r15d,%edi
  4022c9:	41 ff 14 dc          	callq  *(%r12,%rbx,8)
  4022cd:	48 83 c3 01          	add    $0x1,%rbx
  4022d1:	48 39 dd             	cmp    %rbx,%rbp
  4022d4:	75 ea                	jne    4022c0 <__libc_csu_init+0x40>
  4022d6:	48 83 c4 08          	add    $0x8,%rsp
  4022da:	5b                   	pop    %rbx
  4022db:	5d                   	pop    %rbp
  4022dc:	41 5c                	pop    %r12
  4022de:	41 5d                	pop    %r13
  4022e0:	41 5e                	pop    %r14
  4022e2:	41 5f                	pop    %r15
  4022e4:	c3                   	retq   
  4022e5:	90                   	nop
  4022e6:	66 2e 0f 1f 84 00 00 	nopw   %cs:0x0(%rax,%rax,1)
  4022ed:	00 00 00 

00000000004022f0 <__libc_csu_fini>:
  4022f0:	f3 c3                	repz retq 

Disassembly of section .fini:

00000000004022f4 <_fini>:
  4022f4:	48 83 ec 08          	sub    $0x8,%rsp
  4022f8:	48 83 c4 08          	add    $0x8,%rsp
  4022fc:	c3                   	retq   
